ARM GAS  C:\Users\user\AppData\Local\Temp\ccZGoKcd.s 			page 1


   1              		.cpu cortex-m4
   2              		.arch armv7e-m
   3              		.fpu fpv4-sp-d16
   4              		.eabi_attribute 27, 1
   5              		.eabi_attribute 28, 1
   6              		.eabi_attribute 20, 1
   7              		.eabi_attribute 21, 1
   8              		.eabi_attribute 23, 3
   9              		.eabi_attribute 24, 1
  10              		.eabi_attribute 25, 1
  11              		.eabi_attribute 26, 1
  12              		.eabi_attribute 30, 1
  13              		.eabi_attribute 34, 1
  14              		.eabi_attribute 18, 4
  15              		.file	"arm_atan2_f32.c"
  16              		.text
  17              	.Ltext0:
  18              		.cfi_sections	.debug_frame
  19              		.section	.text.arm_atan2_f32,"ax",%progbits
  20              		.align	1
  21              		.global	arm_atan2_f32
  22              		.syntax unified
  23              		.thumb
  24              		.thumb_func
  26              	arm_atan2_f32:
  27              	.LVL0:
  28              	.LFB123:
  29              		.file 1 "Drivers/CMSIS/DSP/Source/FastMathFunctions/arm_atan2_f32.c"
   1:Drivers/CMSIS/DSP/Source/FastMathFunctions/arm_atan2_f32.c **** /* ----------------------------------------------------------------------
   2:Drivers/CMSIS/DSP/Source/FastMathFunctions/arm_atan2_f32.c ****  * Project:      CMSIS DSP Library
   3:Drivers/CMSIS/DSP/Source/FastMathFunctions/arm_atan2_f32.c ****  * Title:        arm_atan2_f32.c
   4:Drivers/CMSIS/DSP/Source/FastMathFunctions/arm_atan2_f32.c ****  * Description:  float32 Arc tangent of y/x
   5:Drivers/CMSIS/DSP/Source/FastMathFunctions/arm_atan2_f32.c ****  *
   6:Drivers/CMSIS/DSP/Source/FastMathFunctions/arm_atan2_f32.c ****  * $Date:        22 April 2022
   7:Drivers/CMSIS/DSP/Source/FastMathFunctions/arm_atan2_f32.c ****  * $Revision:    V1.10.0
   8:Drivers/CMSIS/DSP/Source/FastMathFunctions/arm_atan2_f32.c ****  *
   9:Drivers/CMSIS/DSP/Source/FastMathFunctions/arm_atan2_f32.c ****  * Target Processor: Cortex-M and Cortex-A cores
  10:Drivers/CMSIS/DSP/Source/FastMathFunctions/arm_atan2_f32.c ****  * -------------------------------------------------------------------- */
  11:Drivers/CMSIS/DSP/Source/FastMathFunctions/arm_atan2_f32.c **** /*
  12:Drivers/CMSIS/DSP/Source/FastMathFunctions/arm_atan2_f32.c ****  * Copyright (C) 2010-2022 ARM Limited or its affiliates. All rights reserved.
  13:Drivers/CMSIS/DSP/Source/FastMathFunctions/arm_atan2_f32.c ****  *
  14:Drivers/CMSIS/DSP/Source/FastMathFunctions/arm_atan2_f32.c ****  * SPDX-License-Identifier: Apache-2.0
  15:Drivers/CMSIS/DSP/Source/FastMathFunctions/arm_atan2_f32.c ****  *
  16:Drivers/CMSIS/DSP/Source/FastMathFunctions/arm_atan2_f32.c ****  * Licensed under the Apache License, Version 2.0 (the License); you may
  17:Drivers/CMSIS/DSP/Source/FastMathFunctions/arm_atan2_f32.c ****  * not use this file except in compliance with the License.
  18:Drivers/CMSIS/DSP/Source/FastMathFunctions/arm_atan2_f32.c ****  * You may obtain a copy of the License at
  19:Drivers/CMSIS/DSP/Source/FastMathFunctions/arm_atan2_f32.c ****  *
  20:Drivers/CMSIS/DSP/Source/FastMathFunctions/arm_atan2_f32.c ****  * www.apache.org/licenses/LICENSE-2.0
  21:Drivers/CMSIS/DSP/Source/FastMathFunctions/arm_atan2_f32.c ****  *
  22:Drivers/CMSIS/DSP/Source/FastMathFunctions/arm_atan2_f32.c ****  * Unless required by applicable law or agreed to in writing, software
  23:Drivers/CMSIS/DSP/Source/FastMathFunctions/arm_atan2_f32.c ****  * distributed under the License is distributed on an AS IS BASIS, WITHOUT
  24:Drivers/CMSIS/DSP/Source/FastMathFunctions/arm_atan2_f32.c ****  * WARRANTIES OR CONDITIONS OF ANY KIND, either express or implied.
  25:Drivers/CMSIS/DSP/Source/FastMathFunctions/arm_atan2_f32.c ****  * See the License for the specific language governing permissions and
  26:Drivers/CMSIS/DSP/Source/FastMathFunctions/arm_atan2_f32.c ****  * limitations under the License.
  27:Drivers/CMSIS/DSP/Source/FastMathFunctions/arm_atan2_f32.c ****  */
  28:Drivers/CMSIS/DSP/Source/FastMathFunctions/arm_atan2_f32.c **** 
  29:Drivers/CMSIS/DSP/Source/FastMathFunctions/arm_atan2_f32.c **** #include "dsp/fast_math_functions.h"        
ARM GAS  C:\Users\user\AppData\Local\Temp\ccZGoKcd.s 			page 2


  30:Drivers/CMSIS/DSP/Source/FastMathFunctions/arm_atan2_f32.c **** 
  31:Drivers/CMSIS/DSP/Source/FastMathFunctions/arm_atan2_f32.c **** /*
  32:Drivers/CMSIS/DSP/Source/FastMathFunctions/arm_atan2_f32.c **** 
  33:Drivers/CMSIS/DSP/Source/FastMathFunctions/arm_atan2_f32.c **** atan for argument between in [0, 1.0]
  34:Drivers/CMSIS/DSP/Source/FastMathFunctions/arm_atan2_f32.c **** 
  35:Drivers/CMSIS/DSP/Source/FastMathFunctions/arm_atan2_f32.c **** 
  36:Drivers/CMSIS/DSP/Source/FastMathFunctions/arm_atan2_f32.c **** */
  37:Drivers/CMSIS/DSP/Source/FastMathFunctions/arm_atan2_f32.c **** 
  38:Drivers/CMSIS/DSP/Source/FastMathFunctions/arm_atan2_f32.c **** #define ATANHALFF32 0.463648f
  39:Drivers/CMSIS/DSP/Source/FastMathFunctions/arm_atan2_f32.c **** #define PIHALFF32 1.5707963267948966192313f
  40:Drivers/CMSIS/DSP/Source/FastMathFunctions/arm_atan2_f32.c **** 
  41:Drivers/CMSIS/DSP/Source/FastMathFunctions/arm_atan2_f32.c **** #define ATAN2_NB_COEFS_F32 10
  42:Drivers/CMSIS/DSP/Source/FastMathFunctions/arm_atan2_f32.c **** 
  43:Drivers/CMSIS/DSP/Source/FastMathFunctions/arm_atan2_f32.c **** static const float32_t atan2_coefs_f32[ATAN2_NB_COEFS_F32]={0.0f
  44:Drivers/CMSIS/DSP/Source/FastMathFunctions/arm_atan2_f32.c **** ,1.0000001638308195518f
  45:Drivers/CMSIS/DSP/Source/FastMathFunctions/arm_atan2_f32.c **** ,-0.0000228941363602264f
  46:Drivers/CMSIS/DSP/Source/FastMathFunctions/arm_atan2_f32.c **** ,-0.3328086544578890873f
  47:Drivers/CMSIS/DSP/Source/FastMathFunctions/arm_atan2_f32.c **** ,-0.004404814619311061f
  48:Drivers/CMSIS/DSP/Source/FastMathFunctions/arm_atan2_f32.c **** ,0.2162217461808173258f
  49:Drivers/CMSIS/DSP/Source/FastMathFunctions/arm_atan2_f32.c **** ,-0.0207504842057097504f
  50:Drivers/CMSIS/DSP/Source/FastMathFunctions/arm_atan2_f32.c **** ,-0.1745263362250363339f
  51:Drivers/CMSIS/DSP/Source/FastMathFunctions/arm_atan2_f32.c **** ,0.1340557235283553386f
  52:Drivers/CMSIS/DSP/Source/FastMathFunctions/arm_atan2_f32.c **** ,-0.0323664125927477625f
  53:Drivers/CMSIS/DSP/Source/FastMathFunctions/arm_atan2_f32.c **** };
  54:Drivers/CMSIS/DSP/Source/FastMathFunctions/arm_atan2_f32.c **** 
  55:Drivers/CMSIS/DSP/Source/FastMathFunctions/arm_atan2_f32.c **** __STATIC_FORCEINLINE float32_t arm_atan_limited_f32(float32_t x)
  56:Drivers/CMSIS/DSP/Source/FastMathFunctions/arm_atan2_f32.c **** {
  57:Drivers/CMSIS/DSP/Source/FastMathFunctions/arm_atan2_f32.c ****     float32_t res=atan2_coefs_f32[ATAN2_NB_COEFS_F32-1];
  58:Drivers/CMSIS/DSP/Source/FastMathFunctions/arm_atan2_f32.c ****     int i=1;
  59:Drivers/CMSIS/DSP/Source/FastMathFunctions/arm_atan2_f32.c ****     for(i=1;i<ATAN2_NB_COEFS_F32;i++)
  60:Drivers/CMSIS/DSP/Source/FastMathFunctions/arm_atan2_f32.c ****     {
  61:Drivers/CMSIS/DSP/Source/FastMathFunctions/arm_atan2_f32.c ****         res = x*res + atan2_coefs_f32[ATAN2_NB_COEFS_F32-1-i];
  62:Drivers/CMSIS/DSP/Source/FastMathFunctions/arm_atan2_f32.c ****     }
  63:Drivers/CMSIS/DSP/Source/FastMathFunctions/arm_atan2_f32.c **** 
  64:Drivers/CMSIS/DSP/Source/FastMathFunctions/arm_atan2_f32.c **** 
  65:Drivers/CMSIS/DSP/Source/FastMathFunctions/arm_atan2_f32.c ****     return(res);
  66:Drivers/CMSIS/DSP/Source/FastMathFunctions/arm_atan2_f32.c **** }
  67:Drivers/CMSIS/DSP/Source/FastMathFunctions/arm_atan2_f32.c **** 
  68:Drivers/CMSIS/DSP/Source/FastMathFunctions/arm_atan2_f32.c **** __STATIC_FORCEINLINE float32_t arm_atan_f32(float32_t x)
  69:Drivers/CMSIS/DSP/Source/FastMathFunctions/arm_atan2_f32.c **** {
  70:Drivers/CMSIS/DSP/Source/FastMathFunctions/arm_atan2_f32.c ****    int sign=0;
  71:Drivers/CMSIS/DSP/Source/FastMathFunctions/arm_atan2_f32.c ****    float32_t res=0.0f;
  72:Drivers/CMSIS/DSP/Source/FastMathFunctions/arm_atan2_f32.c **** 
  73:Drivers/CMSIS/DSP/Source/FastMathFunctions/arm_atan2_f32.c ****    if (x < 0.0f)
  74:Drivers/CMSIS/DSP/Source/FastMathFunctions/arm_atan2_f32.c ****    {
  75:Drivers/CMSIS/DSP/Source/FastMathFunctions/arm_atan2_f32.c ****       sign=1;
  76:Drivers/CMSIS/DSP/Source/FastMathFunctions/arm_atan2_f32.c ****       x=-x;
  77:Drivers/CMSIS/DSP/Source/FastMathFunctions/arm_atan2_f32.c ****    }
  78:Drivers/CMSIS/DSP/Source/FastMathFunctions/arm_atan2_f32.c **** 
  79:Drivers/CMSIS/DSP/Source/FastMathFunctions/arm_atan2_f32.c ****    if (x > 1.0f)
  80:Drivers/CMSIS/DSP/Source/FastMathFunctions/arm_atan2_f32.c ****    {
  81:Drivers/CMSIS/DSP/Source/FastMathFunctions/arm_atan2_f32.c ****       x = 1.0f / x;
  82:Drivers/CMSIS/DSP/Source/FastMathFunctions/arm_atan2_f32.c ****       res = PIHALFF32 - arm_atan_limited_f32(x);
  83:Drivers/CMSIS/DSP/Source/FastMathFunctions/arm_atan2_f32.c ****    }
  84:Drivers/CMSIS/DSP/Source/FastMathFunctions/arm_atan2_f32.c ****    else
  85:Drivers/CMSIS/DSP/Source/FastMathFunctions/arm_atan2_f32.c ****    {
  86:Drivers/CMSIS/DSP/Source/FastMathFunctions/arm_atan2_f32.c ****      res += arm_atan_limited_f32(x);
ARM GAS  C:\Users\user\AppData\Local\Temp\ccZGoKcd.s 			page 3


  87:Drivers/CMSIS/DSP/Source/FastMathFunctions/arm_atan2_f32.c ****    }
  88:Drivers/CMSIS/DSP/Source/FastMathFunctions/arm_atan2_f32.c **** 
  89:Drivers/CMSIS/DSP/Source/FastMathFunctions/arm_atan2_f32.c **** 
  90:Drivers/CMSIS/DSP/Source/FastMathFunctions/arm_atan2_f32.c ****    if (sign)
  91:Drivers/CMSIS/DSP/Source/FastMathFunctions/arm_atan2_f32.c ****    {
  92:Drivers/CMSIS/DSP/Source/FastMathFunctions/arm_atan2_f32.c ****      res = -res;
  93:Drivers/CMSIS/DSP/Source/FastMathFunctions/arm_atan2_f32.c ****    }
  94:Drivers/CMSIS/DSP/Source/FastMathFunctions/arm_atan2_f32.c **** 
  95:Drivers/CMSIS/DSP/Source/FastMathFunctions/arm_atan2_f32.c ****    return(res);
  96:Drivers/CMSIS/DSP/Source/FastMathFunctions/arm_atan2_f32.c **** }
  97:Drivers/CMSIS/DSP/Source/FastMathFunctions/arm_atan2_f32.c **** 
  98:Drivers/CMSIS/DSP/Source/FastMathFunctions/arm_atan2_f32.c **** 
  99:Drivers/CMSIS/DSP/Source/FastMathFunctions/arm_atan2_f32.c **** /**
 100:Drivers/CMSIS/DSP/Source/FastMathFunctions/arm_atan2_f32.c ****   @ingroup groupFastMath
 101:Drivers/CMSIS/DSP/Source/FastMathFunctions/arm_atan2_f32.c ****  */
 102:Drivers/CMSIS/DSP/Source/FastMathFunctions/arm_atan2_f32.c **** 
 103:Drivers/CMSIS/DSP/Source/FastMathFunctions/arm_atan2_f32.c **** /**
 104:Drivers/CMSIS/DSP/Source/FastMathFunctions/arm_atan2_f32.c ****   @defgroup atan2 ArcTan2
 105:Drivers/CMSIS/DSP/Source/FastMathFunctions/arm_atan2_f32.c **** 
 106:Drivers/CMSIS/DSP/Source/FastMathFunctions/arm_atan2_f32.c ****   Computing Arc tangent only using the ratio y/x is not enough to determine the angle
 107:Drivers/CMSIS/DSP/Source/FastMathFunctions/arm_atan2_f32.c ****   since there is an indeterminacy. Opposite quadrants are giving the same ratio.
 108:Drivers/CMSIS/DSP/Source/FastMathFunctions/arm_atan2_f32.c **** 
 109:Drivers/CMSIS/DSP/Source/FastMathFunctions/arm_atan2_f32.c ****   ArcTan2 is not using y/x to compute the angle but y and x and use the sign of y and x
 110:Drivers/CMSIS/DSP/Source/FastMathFunctions/arm_atan2_f32.c ****   to determine the quadrant.
 111:Drivers/CMSIS/DSP/Source/FastMathFunctions/arm_atan2_f32.c **** 
 112:Drivers/CMSIS/DSP/Source/FastMathFunctions/arm_atan2_f32.c ****  */
 113:Drivers/CMSIS/DSP/Source/FastMathFunctions/arm_atan2_f32.c **** 
 114:Drivers/CMSIS/DSP/Source/FastMathFunctions/arm_atan2_f32.c **** /**
 115:Drivers/CMSIS/DSP/Source/FastMathFunctions/arm_atan2_f32.c ****   @addtogroup atan2
 116:Drivers/CMSIS/DSP/Source/FastMathFunctions/arm_atan2_f32.c ****   @{
 117:Drivers/CMSIS/DSP/Source/FastMathFunctions/arm_atan2_f32.c ****  */
 118:Drivers/CMSIS/DSP/Source/FastMathFunctions/arm_atan2_f32.c **** 
 119:Drivers/CMSIS/DSP/Source/FastMathFunctions/arm_atan2_f32.c **** /**
 120:Drivers/CMSIS/DSP/Source/FastMathFunctions/arm_atan2_f32.c ****   @brief       Arc Tangent of y/x using sign of y and x to get right quadrant
 121:Drivers/CMSIS/DSP/Source/FastMathFunctions/arm_atan2_f32.c ****   @param[in]   y  y coordinate
 122:Drivers/CMSIS/DSP/Source/FastMathFunctions/arm_atan2_f32.c ****   @param[in]   x  x coordinate
 123:Drivers/CMSIS/DSP/Source/FastMathFunctions/arm_atan2_f32.c ****   @param[out]  result  Result
 124:Drivers/CMSIS/DSP/Source/FastMathFunctions/arm_atan2_f32.c ****   @return  error status.
 125:Drivers/CMSIS/DSP/Source/FastMathFunctions/arm_atan2_f32.c ****  
 126:Drivers/CMSIS/DSP/Source/FastMathFunctions/arm_atan2_f32.c ****   @par         Compute the Arc tangent of y/x:
 127:Drivers/CMSIS/DSP/Source/FastMathFunctions/arm_atan2_f32.c ****                    The sign of y and x are used to determine the right quadrant
 128:Drivers/CMSIS/DSP/Source/FastMathFunctions/arm_atan2_f32.c ****                    and compute the right angle.
 129:Drivers/CMSIS/DSP/Source/FastMathFunctions/arm_atan2_f32.c **** */
 130:Drivers/CMSIS/DSP/Source/FastMathFunctions/arm_atan2_f32.c **** 
 131:Drivers/CMSIS/DSP/Source/FastMathFunctions/arm_atan2_f32.c **** 
 132:Drivers/CMSIS/DSP/Source/FastMathFunctions/arm_atan2_f32.c **** arm_status arm_atan2_f32(float32_t y,float32_t x,float32_t *result)
 133:Drivers/CMSIS/DSP/Source/FastMathFunctions/arm_atan2_f32.c **** {
  30              		.loc 1 133 1 view -0
  31              		.cfi_startproc
  32              		@ args = 0, pretend = 0, frame = 0
  33              		@ frame_needed = 0, uses_anonymous_args = 0
  34              		@ link register save eliminated.
  35              		.loc 1 133 1 is_stmt 0 view .LVU1
  36 0000 10B4     		push	{r4}
  37              	.LCFI0:
  38              		.cfi_def_cfa_offset 4
  39              		.cfi_offset 4, -4
ARM GAS  C:\Users\user\AppData\Local\Temp\ccZGoKcd.s 			page 4


 134:Drivers/CMSIS/DSP/Source/FastMathFunctions/arm_atan2_f32.c ****     if (x > 0.0f)
  40              		.loc 1 134 5 is_stmt 1 view .LVU2
  41              		.loc 1 134 8 is_stmt 0 view .LVU3
  42 0002 F5EEC00A 		vcmpe.f32	s1, #0
  43 0006 F1EE10FA 		vmrs	APSR_nzcv, FPSCR
  44 000a 1ADC     		bgt	.L76
 135:Drivers/CMSIS/DSP/Source/FastMathFunctions/arm_atan2_f32.c ****     {
 136:Drivers/CMSIS/DSP/Source/FastMathFunctions/arm_atan2_f32.c ****         *result=arm_atan_f32(y/x);
 137:Drivers/CMSIS/DSP/Source/FastMathFunctions/arm_atan2_f32.c ****         return(ARM_MATH_SUCCESS);
 138:Drivers/CMSIS/DSP/Source/FastMathFunctions/arm_atan2_f32.c ****     }
 139:Drivers/CMSIS/DSP/Source/FastMathFunctions/arm_atan2_f32.c ****     if (x < 0.0f)
  45              		.loc 1 139 5 is_stmt 1 view .LVU4
  46              		.loc 1 139 8 is_stmt 0 view .LVU5
  47 000c F5EEC00A 		vcmpe.f32	s1, #0
  48 0010 F1EE10FA 		vmrs	APSR_nzcv, FPSCR
  49 0014 60D4     		bmi	.L77
 140:Drivers/CMSIS/DSP/Source/FastMathFunctions/arm_atan2_f32.c ****     {
 141:Drivers/CMSIS/DSP/Source/FastMathFunctions/arm_atan2_f32.c ****         if (y > 0.0f)
 142:Drivers/CMSIS/DSP/Source/FastMathFunctions/arm_atan2_f32.c ****         {
 143:Drivers/CMSIS/DSP/Source/FastMathFunctions/arm_atan2_f32.c ****            *result=arm_atan_f32(y/x) + PI;
 144:Drivers/CMSIS/DSP/Source/FastMathFunctions/arm_atan2_f32.c ****         }
 145:Drivers/CMSIS/DSP/Source/FastMathFunctions/arm_atan2_f32.c ****         else if (y < 0.0f)
 146:Drivers/CMSIS/DSP/Source/FastMathFunctions/arm_atan2_f32.c ****         {
 147:Drivers/CMSIS/DSP/Source/FastMathFunctions/arm_atan2_f32.c ****            *result=arm_atan_f32(y/x) - PI;
 148:Drivers/CMSIS/DSP/Source/FastMathFunctions/arm_atan2_f32.c ****         }
 149:Drivers/CMSIS/DSP/Source/FastMathFunctions/arm_atan2_f32.c ****         else
 150:Drivers/CMSIS/DSP/Source/FastMathFunctions/arm_atan2_f32.c ****         {
 151:Drivers/CMSIS/DSP/Source/FastMathFunctions/arm_atan2_f32.c ****             if (signbit(y))
 152:Drivers/CMSIS/DSP/Source/FastMathFunctions/arm_atan2_f32.c ****             {
 153:Drivers/CMSIS/DSP/Source/FastMathFunctions/arm_atan2_f32.c ****                *result= -PI;
 154:Drivers/CMSIS/DSP/Source/FastMathFunctions/arm_atan2_f32.c ****             }
 155:Drivers/CMSIS/DSP/Source/FastMathFunctions/arm_atan2_f32.c ****             else
 156:Drivers/CMSIS/DSP/Source/FastMathFunctions/arm_atan2_f32.c ****             {
 157:Drivers/CMSIS/DSP/Source/FastMathFunctions/arm_atan2_f32.c ****                *result= PI;
 158:Drivers/CMSIS/DSP/Source/FastMathFunctions/arm_atan2_f32.c ****             }
 159:Drivers/CMSIS/DSP/Source/FastMathFunctions/arm_atan2_f32.c ****         }
 160:Drivers/CMSIS/DSP/Source/FastMathFunctions/arm_atan2_f32.c ****         return(ARM_MATH_SUCCESS);
 161:Drivers/CMSIS/DSP/Source/FastMathFunctions/arm_atan2_f32.c ****     }
 162:Drivers/CMSIS/DSP/Source/FastMathFunctions/arm_atan2_f32.c ****     if (x == 0.0f)
  50              		.loc 1 162 5 is_stmt 1 view .LVU6
  51              		.loc 1 162 8 is_stmt 0 view .LVU7
  52 0016 F5EE400A 		vcmp.f32	s1, #0
  53 001a F1EE10FA 		vmrs	APSR_nzcv, FPSCR
  54 001e 40F00C81 		bne	.L49
 163:Drivers/CMSIS/DSP/Source/FastMathFunctions/arm_atan2_f32.c ****     {
 164:Drivers/CMSIS/DSP/Source/FastMathFunctions/arm_atan2_f32.c ****         if (y > 0.0f)
  55              		.loc 1 164 9 is_stmt 1 view .LVU8
  56              		.loc 1 164 12 is_stmt 0 view .LVU9
  57 0022 B5EEC00A 		vcmpe.f32	s0, #0
  58 0026 F1EE10FA 		vmrs	APSR_nzcv, FPSCR
  59 002a 00F30281 		bgt	.L78
 165:Drivers/CMSIS/DSP/Source/FastMathFunctions/arm_atan2_f32.c ****         {
 166:Drivers/CMSIS/DSP/Source/FastMathFunctions/arm_atan2_f32.c ****             *result=PIHALFF32;
 167:Drivers/CMSIS/DSP/Source/FastMathFunctions/arm_atan2_f32.c ****             return(ARM_MATH_SUCCESS);
 168:Drivers/CMSIS/DSP/Source/FastMathFunctions/arm_atan2_f32.c ****         }
 169:Drivers/CMSIS/DSP/Source/FastMathFunctions/arm_atan2_f32.c ****         if (y < 0.0f)
  60              		.loc 1 169 9 is_stmt 1 view .LVU10
ARM GAS  C:\Users\user\AppData\Local\Temp\ccZGoKcd.s 			page 5


  61              		.loc 1 169 12 is_stmt 0 view .LVU11
  62 002e B5EEC00A 		vcmpe.f32	s0, #0
  63 0032 F1EE10FA 		vmrs	APSR_nzcv, FPSCR
  64 0036 40F10381 		bpl	.L74
 170:Drivers/CMSIS/DSP/Source/FastMathFunctions/arm_atan2_f32.c ****         {
 171:Drivers/CMSIS/DSP/Source/FastMathFunctions/arm_atan2_f32.c ****             *result=-PIHALFF32;
  65              		.loc 1 171 13 is_stmt 1 view .LVU12
  66              		.loc 1 171 20 is_stmt 0 view .LVU13
  67 003a 834B     		ldr	r3, .L84
  68 003c 0360     		str	r3, [r0]	@ float
 172:Drivers/CMSIS/DSP/Source/FastMathFunctions/arm_atan2_f32.c ****             return(ARM_MATH_SUCCESS);
  69              		.loc 1 172 13 is_stmt 1 view .LVU14
  70              		.loc 1 172 19 is_stmt 0 view .LVU15
  71 003e 0020     		movs	r0, #0
  72              	.LVL1:
  73              		.loc 1 172 19 view .LVU16
  74 0040 30E0     		b	.L13
  75              	.LVL2:
  76              	.L76:
 136:Drivers/CMSIS/DSP/Source/FastMathFunctions/arm_atan2_f32.c ****         return(ARM_MATH_SUCCESS);
  77              		.loc 1 136 9 is_stmt 1 view .LVU17
 136:Drivers/CMSIS/DSP/Source/FastMathFunctions/arm_atan2_f32.c ****         return(ARM_MATH_SUCCESS);
  78              		.loc 1 136 17 is_stmt 0 view .LVU18
  79 0042 80EE207A 		vdiv.f32	s14, s0, s1
  80              	.LVL3:
  81              	.LBB24:
  82              	.LBI24:
  68:Drivers/CMSIS/DSP/Source/FastMathFunctions/arm_atan2_f32.c **** {
  83              		.loc 1 68 32 is_stmt 1 view .LVU19
  84              	.LBB25:
  70:Drivers/CMSIS/DSP/Source/FastMathFunctions/arm_atan2_f32.c ****    float32_t res=0.0f;
  85              		.loc 1 70 4 view .LVU20
  71:Drivers/CMSIS/DSP/Source/FastMathFunctions/arm_atan2_f32.c **** 
  86              		.loc 1 71 4 view .LVU21
  73:Drivers/CMSIS/DSP/Source/FastMathFunctions/arm_atan2_f32.c ****    {
  87              		.loc 1 73 4 view .LVU22
  73:Drivers/CMSIS/DSP/Source/FastMathFunctions/arm_atan2_f32.c ****    {
  88              		.loc 1 73 7 is_stmt 0 view .LVU23
  89 0046 B5EEC07A 		vcmpe.f32	s14, #0
  90 004a F1EE10FA 		vmrs	APSR_nzcv, FPSCR
  91 004e 0DD4     		bmi	.L79
  70:Drivers/CMSIS/DSP/Source/FastMathFunctions/arm_atan2_f32.c ****    float32_t res=0.0f;
  92              		.loc 1 70 8 view .LVU24
  93 0050 0024     		movs	r4, #0
  94              	.LVL4:
  95              	.L4:
  79:Drivers/CMSIS/DSP/Source/FastMathFunctions/arm_atan2_f32.c ****    {
  96              		.loc 1 79 4 is_stmt 1 view .LVU25
  79:Drivers/CMSIS/DSP/Source/FastMathFunctions/arm_atan2_f32.c ****    {
  97              		.loc 1 79 7 is_stmt 0 view .LVU26
  98 0052 F7EE007A 		vmov.f32	s15, #1.0e+0
  99 0056 B4EEE77A 		vcmpe.f32	s14, s15
 100 005a F1EE10FA 		vmrs	APSR_nzcv, FPSCR
 101 005e 37DD     		ble	.L65
  81:Drivers/CMSIS/DSP/Source/FastMathFunctions/arm_atan2_f32.c ****       res = PIHALFF32 - arm_atan_limited_f32(x);
 102              		.loc 1 81 7 is_stmt 1 view .LVU27
  81:Drivers/CMSIS/DSP/Source/FastMathFunctions/arm_atan2_f32.c ****       res = PIHALFF32 - arm_atan_limited_f32(x);
ARM GAS  C:\Users\user\AppData\Local\Temp\ccZGoKcd.s 			page 6


 103              		.loc 1 81 9 is_stmt 0 view .LVU28
 104 0060 C7EE876A 		vdiv.f32	s13, s15, s14
 105              	.LVL5:
  82:Drivers/CMSIS/DSP/Source/FastMathFunctions/arm_atan2_f32.c ****    }
 106              		.loc 1 82 7 is_stmt 1 view .LVU29
 107              	.LBB26:
 108              	.LBI26:
  55:Drivers/CMSIS/DSP/Source/FastMathFunctions/arm_atan2_f32.c **** {
 109              		.loc 1 55 32 view .LVU30
 110              	.LBB27:
  57:Drivers/CMSIS/DSP/Source/FastMathFunctions/arm_atan2_f32.c ****     int i=1;
 111              		.loc 1 57 5 view .LVU31
  58:Drivers/CMSIS/DSP/Source/FastMathFunctions/arm_atan2_f32.c ****     for(i=1;i<ATAN2_NB_COEFS_F32;i++)
 112              		.loc 1 58 5 view .LVU32
  59:Drivers/CMSIS/DSP/Source/FastMathFunctions/arm_atan2_f32.c ****     {
 113              		.loc 1 59 5 view .LVU33
  59:Drivers/CMSIS/DSP/Source/FastMathFunctions/arm_atan2_f32.c ****     {
 114              		.loc 1 59 10 is_stmt 0 view .LVU34
 115 0064 0123     		movs	r3, #1
  57:Drivers/CMSIS/DSP/Source/FastMathFunctions/arm_atan2_f32.c ****     int i=1;
 116              		.loc 1 57 15 view .LVU35
 117 0066 DFED797A 		vldr.32	s15, .L84+4
  59:Drivers/CMSIS/DSP/Source/FastMathFunctions/arm_atan2_f32.c ****     {
 118              		.loc 1 59 5 view .LVU36
 119 006a 0FE0     		b	.L8
 120              	.LVL6:
 121              	.L79:
  59:Drivers/CMSIS/DSP/Source/FastMathFunctions/arm_atan2_f32.c ****     {
 122              		.loc 1 59 5 view .LVU37
 123              	.LBE27:
 124              	.LBE26:
  75:Drivers/CMSIS/DSP/Source/FastMathFunctions/arm_atan2_f32.c ****       x=-x;
 125              		.loc 1 75 7 is_stmt 1 view .LVU38
  76:Drivers/CMSIS/DSP/Source/FastMathFunctions/arm_atan2_f32.c ****    }
 126              		.loc 1 76 7 view .LVU39
  76:Drivers/CMSIS/DSP/Source/FastMathFunctions/arm_atan2_f32.c ****    }
 127              		.loc 1 76 8 is_stmt 0 view .LVU40
 128 006c B1EE477A 		vneg.f32	s14, s14
 129              	.LVL7:
  75:Drivers/CMSIS/DSP/Source/FastMathFunctions/arm_atan2_f32.c ****       x=-x;
 130              		.loc 1 75 11 view .LVU41
 131 0070 0124     		movs	r4, #1
 132 0072 EEE7     		b	.L4
 133              	.LVL8:
 134              	.L9:
 135              	.LBB29:
 136              	.LBB28:
  61:Drivers/CMSIS/DSP/Source/FastMathFunctions/arm_atan2_f32.c ****     }
 137              		.loc 1 61 9 is_stmt 1 view .LVU42
  61:Drivers/CMSIS/DSP/Source/FastMathFunctions/arm_atan2_f32.c ****     }
 138              		.loc 1 61 16 is_stmt 0 view .LVU43
 139 0074 66EEA77A 		vmul.f32	s15, s13, s15
 140              	.LVL9:
  61:Drivers/CMSIS/DSP/Source/FastMathFunctions/arm_atan2_f32.c ****     }
 141              		.loc 1 61 59 view .LVU44
 142 0078 C3F10901 		rsb	r1, r3, #9
  61:Drivers/CMSIS/DSP/Source/FastMathFunctions/arm_atan2_f32.c ****     }
ARM GAS  C:\Users\user\AppData\Local\Temp\ccZGoKcd.s 			page 7


 143              		.loc 1 61 38 view .LVU45
 144 007c 744A     		ldr	r2, .L84+8
 145 007e 02EB8102 		add	r2, r2, r1, lsl #2
 146 0082 92ED007A 		vldr.32	s14, [r2]
  61:Drivers/CMSIS/DSP/Source/FastMathFunctions/arm_atan2_f32.c ****     }
 147              		.loc 1 61 13 view .LVU46
 148 0086 77EE877A 		vadd.f32	s15, s15, s14
 149              	.LVL10:
  59:Drivers/CMSIS/DSP/Source/FastMathFunctions/arm_atan2_f32.c ****     {
 150              		.loc 1 59 34 is_stmt 1 view .LVU47
  59:Drivers/CMSIS/DSP/Source/FastMathFunctions/arm_atan2_f32.c ****     {
 151              		.loc 1 59 35 is_stmt 0 view .LVU48
 152 008a 0133     		adds	r3, r3, #1
 153              	.LVL11:
 154              	.L8:
  59:Drivers/CMSIS/DSP/Source/FastMathFunctions/arm_atan2_f32.c ****     {
 155              		.loc 1 59 13 is_stmt 1 view .LVU49
  59:Drivers/CMSIS/DSP/Source/FastMathFunctions/arm_atan2_f32.c ****     {
 156              		.loc 1 59 5 is_stmt 0 view .LVU50
 157 008c 092B     		cmp	r3, #9
 158 008e F1DD     		ble	.L9
  65:Drivers/CMSIS/DSP/Source/FastMathFunctions/arm_atan2_f32.c **** }
 159              		.loc 1 65 5 is_stmt 1 view .LVU51
 160              	.LVL12:
  65:Drivers/CMSIS/DSP/Source/FastMathFunctions/arm_atan2_f32.c **** }
 161              		.loc 1 65 5 is_stmt 0 view .LVU52
 162              	.LBE28:
 163              	.LBE29:
  82:Drivers/CMSIS/DSP/Source/FastMathFunctions/arm_atan2_f32.c ****    }
 164              		.loc 1 82 11 view .LVU53
 165 0090 9FED707A 		vldr.32	s14, .L84+12
 166 0094 77EE677A 		vsub.f32	s15, s14, s15
 167              	.LVL13:
 168              	.L10:
  90:Drivers/CMSIS/DSP/Source/FastMathFunctions/arm_atan2_f32.c ****    {
 169              		.loc 1 90 4 is_stmt 1 view .LVU54
  90:Drivers/CMSIS/DSP/Source/FastMathFunctions/arm_atan2_f32.c ****    {
 170              		.loc 1 90 7 is_stmt 0 view .LVU55
 171 0098 0CB1     		cbz	r4, .L12
  92:Drivers/CMSIS/DSP/Source/FastMathFunctions/arm_atan2_f32.c ****    }
 172              		.loc 1 92 6 is_stmt 1 view .LVU56
  92:Drivers/CMSIS/DSP/Source/FastMathFunctions/arm_atan2_f32.c ****    }
 173              		.loc 1 92 10 is_stmt 0 view .LVU57
 174 009a F1EE677A 		vneg.f32	s15, s15
 175              	.LVL14:
 176              	.L12:
  95:Drivers/CMSIS/DSP/Source/FastMathFunctions/arm_atan2_f32.c **** }
 177              		.loc 1 95 4 is_stmt 1 view .LVU58
  95:Drivers/CMSIS/DSP/Source/FastMathFunctions/arm_atan2_f32.c **** }
 178              		.loc 1 95 4 is_stmt 0 view .LVU59
 179              	.LBE25:
 180              	.LBE24:
 136:Drivers/CMSIS/DSP/Source/FastMathFunctions/arm_atan2_f32.c ****         return(ARM_MATH_SUCCESS);
 181              		.loc 1 136 16 view .LVU60
 182 009e C0ED007A 		vstr.32	s15, [r0]
 137:Drivers/CMSIS/DSP/Source/FastMathFunctions/arm_atan2_f32.c ****     }
 183              		.loc 1 137 9 is_stmt 1 view .LVU61
ARM GAS  C:\Users\user\AppData\Local\Temp\ccZGoKcd.s 			page 8


 137:Drivers/CMSIS/DSP/Source/FastMathFunctions/arm_atan2_f32.c ****     }
 184              		.loc 1 137 15 is_stmt 0 view .LVU62
 185 00a2 0020     		movs	r0, #0
 186              	.LVL15:
 187              	.L13:
 173:Drivers/CMSIS/DSP/Source/FastMathFunctions/arm_atan2_f32.c ****         }
 174:Drivers/CMSIS/DSP/Source/FastMathFunctions/arm_atan2_f32.c ****     }
 175:Drivers/CMSIS/DSP/Source/FastMathFunctions/arm_atan2_f32.c ****     
 176:Drivers/CMSIS/DSP/Source/FastMathFunctions/arm_atan2_f32.c **** 
 177:Drivers/CMSIS/DSP/Source/FastMathFunctions/arm_atan2_f32.c ****     return(ARM_MATH_NANINF);
 178:Drivers/CMSIS/DSP/Source/FastMathFunctions/arm_atan2_f32.c **** 
 179:Drivers/CMSIS/DSP/Source/FastMathFunctions/arm_atan2_f32.c **** }
 188              		.loc 1 179 1 view .LVU63
 189 00a4 5DF8044B 		ldr	r4, [sp], #4
 190              	.LCFI1:
 191              		.cfi_remember_state
 192              		.cfi_restore 4
 193              		.cfi_def_cfa_offset 0
 194 00a8 7047     		bx	lr
 195              	.LVL16:
 196              	.L11:
 197              	.LCFI2:
 198              		.cfi_restore_state
 199              	.LBB35:
 200              	.LBB34:
 201              	.LBB30:
 202              	.LBB31:
  61:Drivers/CMSIS/DSP/Source/FastMathFunctions/arm_atan2_f32.c ****     }
 203              		.loc 1 61 9 is_stmt 1 view .LVU64
  61:Drivers/CMSIS/DSP/Source/FastMathFunctions/arm_atan2_f32.c ****     }
 204              		.loc 1 61 16 is_stmt 0 view .LVU65
 205 00aa 67EE277A 		vmul.f32	s15, s14, s15
 206              	.LVL17:
  61:Drivers/CMSIS/DSP/Source/FastMathFunctions/arm_atan2_f32.c ****     }
 207              		.loc 1 61 59 view .LVU66
 208 00ae C3F10901 		rsb	r1, r3, #9
  61:Drivers/CMSIS/DSP/Source/FastMathFunctions/arm_atan2_f32.c ****     }
 209              		.loc 1 61 38 view .LVU67
 210 00b2 674A     		ldr	r2, .L84+8
 211 00b4 02EB8102 		add	r2, r2, r1, lsl #2
 212 00b8 D2ED006A 		vldr.32	s13, [r2]
  61:Drivers/CMSIS/DSP/Source/FastMathFunctions/arm_atan2_f32.c ****     }
 213              		.loc 1 61 13 view .LVU68
 214 00bc 77EEA67A 		vadd.f32	s15, s15, s13
 215              	.LVL18:
  59:Drivers/CMSIS/DSP/Source/FastMathFunctions/arm_atan2_f32.c ****     {
 216              		.loc 1 59 34 is_stmt 1 view .LVU69
  59:Drivers/CMSIS/DSP/Source/FastMathFunctions/arm_atan2_f32.c ****     {
 217              		.loc 1 59 35 is_stmt 0 view .LVU70
 218 00c0 0133     		adds	r3, r3, #1
 219              	.LVL19:
 220              	.L6:
  59:Drivers/CMSIS/DSP/Source/FastMathFunctions/arm_atan2_f32.c ****     {
 221              		.loc 1 59 13 is_stmt 1 view .LVU71
  59:Drivers/CMSIS/DSP/Source/FastMathFunctions/arm_atan2_f32.c ****     {
 222              		.loc 1 59 5 is_stmt 0 view .LVU72
 223 00c2 092B     		cmp	r3, #9
ARM GAS  C:\Users\user\AppData\Local\Temp\ccZGoKcd.s 			page 9


 224 00c4 F1DD     		ble	.L11
  65:Drivers/CMSIS/DSP/Source/FastMathFunctions/arm_atan2_f32.c **** }
 225              		.loc 1 65 5 is_stmt 1 view .LVU73
 226              	.LVL20:
  65:Drivers/CMSIS/DSP/Source/FastMathFunctions/arm_atan2_f32.c **** }
 227              		.loc 1 65 5 is_stmt 0 view .LVU74
 228              	.LBE31:
 229              	.LBE30:
  86:Drivers/CMSIS/DSP/Source/FastMathFunctions/arm_atan2_f32.c ****    }
 230              		.loc 1 86 10 view .LVU75
 231 00c6 9FED647A 		vldr.32	s14, .L84+16
 232              	.LVL21:
  86:Drivers/CMSIS/DSP/Source/FastMathFunctions/arm_atan2_f32.c ****    }
 233              		.loc 1 86 10 view .LVU76
 234 00ca 77EE877A 		vadd.f32	s15, s15, s14
 235              	.LVL22:
  86:Drivers/CMSIS/DSP/Source/FastMathFunctions/arm_atan2_f32.c ****    }
 236              		.loc 1 86 10 view .LVU77
 237 00ce E3E7     		b	.L10
 238              	.LVL23:
 239              	.L65:
 240              	.LBB33:
 241              	.LBB32:
  59:Drivers/CMSIS/DSP/Source/FastMathFunctions/arm_atan2_f32.c ****     {
 242              		.loc 1 59 10 view .LVU78
 243 00d0 0123     		movs	r3, #1
  57:Drivers/CMSIS/DSP/Source/FastMathFunctions/arm_atan2_f32.c ****     int i=1;
 244              		.loc 1 57 15 view .LVU79
 245 00d2 DFED5E7A 		vldr.32	s15, .L84+4
 246 00d6 F4E7     		b	.L6
 247              	.LVL24:
 248              	.L77:
  57:Drivers/CMSIS/DSP/Source/FastMathFunctions/arm_atan2_f32.c ****     int i=1;
 249              		.loc 1 57 15 view .LVU80
 250              	.LBE32:
 251              	.LBE33:
 252              	.LBE34:
 253              	.LBE35:
 141:Drivers/CMSIS/DSP/Source/FastMathFunctions/arm_atan2_f32.c ****         {
 254              		.loc 1 141 9 is_stmt 1 view .LVU81
 141:Drivers/CMSIS/DSP/Source/FastMathFunctions/arm_atan2_f32.c ****         {
 255              		.loc 1 141 12 is_stmt 0 view .LVU82
 256 00d8 B5EEC00A 		vcmpe.f32	s0, #0
 257 00dc F1EE10FA 		vmrs	APSR_nzcv, FPSCR
 258 00e0 4CDD     		ble	.L67
 143:Drivers/CMSIS/DSP/Source/FastMathFunctions/arm_atan2_f32.c ****         }
 259              		.loc 1 143 12 is_stmt 1 view .LVU83
 143:Drivers/CMSIS/DSP/Source/FastMathFunctions/arm_atan2_f32.c ****         }
 260              		.loc 1 143 20 is_stmt 0 view .LVU84
 261 00e2 80EE207A 		vdiv.f32	s14, s0, s1
 262              	.LVL25:
 263              	.LBB36:
 264              	.LBI36:
  68:Drivers/CMSIS/DSP/Source/FastMathFunctions/arm_atan2_f32.c **** {
 265              		.loc 1 68 32 is_stmt 1 view .LVU85
 266              	.LBB37:
  70:Drivers/CMSIS/DSP/Source/FastMathFunctions/arm_atan2_f32.c ****    float32_t res=0.0f;
ARM GAS  C:\Users\user\AppData\Local\Temp\ccZGoKcd.s 			page 10


 267              		.loc 1 70 4 view .LVU86
  71:Drivers/CMSIS/DSP/Source/FastMathFunctions/arm_atan2_f32.c **** 
 268              		.loc 1 71 4 view .LVU87
  73:Drivers/CMSIS/DSP/Source/FastMathFunctions/arm_atan2_f32.c ****    {
 269              		.loc 1 73 4 view .LVU88
  73:Drivers/CMSIS/DSP/Source/FastMathFunctions/arm_atan2_f32.c ****    {
 270              		.loc 1 73 7 is_stmt 0 view .LVU89
 271 00e6 B5EEC07A 		vcmpe.f32	s14, #0
 272 00ea F1EE10FA 		vmrs	APSR_nzcv, FPSCR
 273 00ee 1BD4     		bmi	.L80
  70:Drivers/CMSIS/DSP/Source/FastMathFunctions/arm_atan2_f32.c ****    float32_t res=0.0f;
 274              		.loc 1 70 8 view .LVU90
 275 00f0 0024     		movs	r4, #0
 276              	.LVL26:
 277              	.L18:
  79:Drivers/CMSIS/DSP/Source/FastMathFunctions/arm_atan2_f32.c ****    {
 278              		.loc 1 79 4 is_stmt 1 view .LVU91
  79:Drivers/CMSIS/DSP/Source/FastMathFunctions/arm_atan2_f32.c ****    {
 279              		.loc 1 79 7 is_stmt 0 view .LVU92
 280 00f2 F7EE007A 		vmov.f32	s15, #1.0e+0
 281 00f6 B4EEE77A 		vcmpe.f32	s14, s15
 282 00fa F1EE10FA 		vmrs	APSR_nzcv, FPSCR
 283 00fe 39DD     		ble	.L69
  81:Drivers/CMSIS/DSP/Source/FastMathFunctions/arm_atan2_f32.c ****       res = PIHALFF32 - arm_atan_limited_f32(x);
 284              		.loc 1 81 7 is_stmt 1 view .LVU93
  81:Drivers/CMSIS/DSP/Source/FastMathFunctions/arm_atan2_f32.c ****       res = PIHALFF32 - arm_atan_limited_f32(x);
 285              		.loc 1 81 9 is_stmt 0 view .LVU94
 286 0100 C7EE876A 		vdiv.f32	s13, s15, s14
 287              	.LVL27:
  82:Drivers/CMSIS/DSP/Source/FastMathFunctions/arm_atan2_f32.c ****    }
 288              		.loc 1 82 7 is_stmt 1 view .LVU95
 289              	.LBB38:
 290              	.LBI38:
  55:Drivers/CMSIS/DSP/Source/FastMathFunctions/arm_atan2_f32.c **** {
 291              		.loc 1 55 32 view .LVU96
 292              	.LBB39:
  57:Drivers/CMSIS/DSP/Source/FastMathFunctions/arm_atan2_f32.c ****     int i=1;
 293              		.loc 1 57 5 view .LVU97
  58:Drivers/CMSIS/DSP/Source/FastMathFunctions/arm_atan2_f32.c ****     for(i=1;i<ATAN2_NB_COEFS_F32;i++)
 294              		.loc 1 58 5 view .LVU98
  59:Drivers/CMSIS/DSP/Source/FastMathFunctions/arm_atan2_f32.c ****     {
 295              		.loc 1 59 5 view .LVU99
  59:Drivers/CMSIS/DSP/Source/FastMathFunctions/arm_atan2_f32.c ****     {
 296              		.loc 1 59 10 is_stmt 0 view .LVU100
 297 0104 0123     		movs	r3, #1
  57:Drivers/CMSIS/DSP/Source/FastMathFunctions/arm_atan2_f32.c ****     int i=1;
 298              		.loc 1 57 15 view .LVU101
 299 0106 DFED517A 		vldr.32	s15, .L84+4
 300              	.LVL28:
 301              	.L22:
  59:Drivers/CMSIS/DSP/Source/FastMathFunctions/arm_atan2_f32.c ****     {
 302              		.loc 1 59 13 is_stmt 1 view .LVU102
  59:Drivers/CMSIS/DSP/Source/FastMathFunctions/arm_atan2_f32.c ****     {
 303              		.loc 1 59 5 is_stmt 0 view .LVU103
 304 010a 092B     		cmp	r3, #9
 305 010c 10DC     		bgt	.L81
  61:Drivers/CMSIS/DSP/Source/FastMathFunctions/arm_atan2_f32.c ****     }
ARM GAS  C:\Users\user\AppData\Local\Temp\ccZGoKcd.s 			page 11


 306              		.loc 1 61 9 is_stmt 1 view .LVU104
  61:Drivers/CMSIS/DSP/Source/FastMathFunctions/arm_atan2_f32.c ****     }
 307              		.loc 1 61 16 is_stmt 0 view .LVU105
 308 010e 66EEA77A 		vmul.f32	s15, s13, s15
 309              	.LVL29:
  61:Drivers/CMSIS/DSP/Source/FastMathFunctions/arm_atan2_f32.c ****     }
 310              		.loc 1 61 59 view .LVU106
 311 0112 C3F10901 		rsb	r1, r3, #9
  61:Drivers/CMSIS/DSP/Source/FastMathFunctions/arm_atan2_f32.c ****     }
 312              		.loc 1 61 38 view .LVU107
 313 0116 4E4A     		ldr	r2, .L84+8
 314 0118 02EB8102 		add	r2, r2, r1, lsl #2
 315 011c 92ED007A 		vldr.32	s14, [r2]
  61:Drivers/CMSIS/DSP/Source/FastMathFunctions/arm_atan2_f32.c ****     }
 316              		.loc 1 61 13 view .LVU108
 317 0120 77EE877A 		vadd.f32	s15, s15, s14
 318              	.LVL30:
  59:Drivers/CMSIS/DSP/Source/FastMathFunctions/arm_atan2_f32.c ****     {
 319              		.loc 1 59 34 is_stmt 1 view .LVU109
  59:Drivers/CMSIS/DSP/Source/FastMathFunctions/arm_atan2_f32.c ****     {
 320              		.loc 1 59 35 is_stmt 0 view .LVU110
 321 0124 0133     		adds	r3, r3, #1
 322              	.LVL31:
  59:Drivers/CMSIS/DSP/Source/FastMathFunctions/arm_atan2_f32.c ****     {
 323              		.loc 1 59 35 view .LVU111
 324 0126 F0E7     		b	.L22
 325              	.LVL32:
 326              	.L80:
  59:Drivers/CMSIS/DSP/Source/FastMathFunctions/arm_atan2_f32.c ****     {
 327              		.loc 1 59 35 view .LVU112
 328              	.LBE39:
 329              	.LBE38:
  75:Drivers/CMSIS/DSP/Source/FastMathFunctions/arm_atan2_f32.c ****       x=-x;
 330              		.loc 1 75 7 is_stmt 1 view .LVU113
  76:Drivers/CMSIS/DSP/Source/FastMathFunctions/arm_atan2_f32.c ****    }
 331              		.loc 1 76 7 view .LVU114
  76:Drivers/CMSIS/DSP/Source/FastMathFunctions/arm_atan2_f32.c ****    }
 332              		.loc 1 76 8 is_stmt 0 view .LVU115
 333 0128 B1EE477A 		vneg.f32	s14, s14
 334              	.LVL33:
  75:Drivers/CMSIS/DSP/Source/FastMathFunctions/arm_atan2_f32.c ****       x=-x;
 335              		.loc 1 75 11 view .LVU116
 336 012c 0124     		movs	r4, #1
 337 012e E0E7     		b	.L18
 338              	.LVL34:
 339              	.L81:
 340              	.LBB41:
 341              	.LBB40:
  65:Drivers/CMSIS/DSP/Source/FastMathFunctions/arm_atan2_f32.c **** }
 342              		.loc 1 65 5 is_stmt 1 view .LVU117
  65:Drivers/CMSIS/DSP/Source/FastMathFunctions/arm_atan2_f32.c **** }
 343              		.loc 1 65 5 is_stmt 0 view .LVU118
 344              	.LBE40:
 345              	.LBE41:
  82:Drivers/CMSIS/DSP/Source/FastMathFunctions/arm_atan2_f32.c ****    }
 346              		.loc 1 82 11 view .LVU119
 347 0130 9FED487A 		vldr.32	s14, .L84+12
ARM GAS  C:\Users\user\AppData\Local\Temp\ccZGoKcd.s 			page 12


 348 0134 77EE677A 		vsub.f32	s15, s14, s15
 349              	.LVL35:
 350              	.L24:
  90:Drivers/CMSIS/DSP/Source/FastMathFunctions/arm_atan2_f32.c ****    {
 351              		.loc 1 90 4 is_stmt 1 view .LVU120
  90:Drivers/CMSIS/DSP/Source/FastMathFunctions/arm_atan2_f32.c ****    {
 352              		.loc 1 90 7 is_stmt 0 view .LVU121
 353 0138 0CB1     		cbz	r4, .L26
  92:Drivers/CMSIS/DSP/Source/FastMathFunctions/arm_atan2_f32.c ****    }
 354              		.loc 1 92 6 is_stmt 1 view .LVU122
  92:Drivers/CMSIS/DSP/Source/FastMathFunctions/arm_atan2_f32.c ****    }
 355              		.loc 1 92 10 is_stmt 0 view .LVU123
 356 013a F1EE677A 		vneg.f32	s15, s15
 357              	.LVL36:
 358              	.L26:
  95:Drivers/CMSIS/DSP/Source/FastMathFunctions/arm_atan2_f32.c **** }
 359              		.loc 1 95 4 is_stmt 1 view .LVU124
  95:Drivers/CMSIS/DSP/Source/FastMathFunctions/arm_atan2_f32.c **** }
 360              		.loc 1 95 4 is_stmt 0 view .LVU125
 361              	.LBE37:
 362              	.LBE36:
 143:Drivers/CMSIS/DSP/Source/FastMathFunctions/arm_atan2_f32.c ****         }
 363              		.loc 1 143 38 view .LVU126
 364 013e 9FED477A 		vldr.32	s14, .L84+20
 365 0142 77EE877A 		vadd.f32	s15, s15, s14
 143:Drivers/CMSIS/DSP/Source/FastMathFunctions/arm_atan2_f32.c ****         }
 366              		.loc 1 143 19 view .LVU127
 367 0146 C0ED007A 		vstr.32	s15, [r0]
 368              	.L27:
 160:Drivers/CMSIS/DSP/Source/FastMathFunctions/arm_atan2_f32.c ****     }
 369              		.loc 1 160 9 is_stmt 1 view .LVU128
 160:Drivers/CMSIS/DSP/Source/FastMathFunctions/arm_atan2_f32.c ****     }
 370              		.loc 1 160 15 is_stmt 0 view .LVU129
 371 014a 0020     		movs	r0, #0
 372              	.LVL37:
 160:Drivers/CMSIS/DSP/Source/FastMathFunctions/arm_atan2_f32.c ****     }
 373              		.loc 1 160 15 view .LVU130
 374 014c AAE7     		b	.L13
 375              	.LVL38:
 376              	.L25:
 377              	.LBB47:
 378              	.LBB46:
 379              	.LBB42:
 380              	.LBB43:
  61:Drivers/CMSIS/DSP/Source/FastMathFunctions/arm_atan2_f32.c ****     }
 381              		.loc 1 61 9 is_stmt 1 view .LVU131
  61:Drivers/CMSIS/DSP/Source/FastMathFunctions/arm_atan2_f32.c ****     }
 382              		.loc 1 61 16 is_stmt 0 view .LVU132
 383 014e 67EE277A 		vmul.f32	s15, s14, s15
 384              	.LVL39:
  61:Drivers/CMSIS/DSP/Source/FastMathFunctions/arm_atan2_f32.c ****     }
 385              		.loc 1 61 59 view .LVU133
 386 0152 C3F10901 		rsb	r1, r3, #9
  61:Drivers/CMSIS/DSP/Source/FastMathFunctions/arm_atan2_f32.c ****     }
 387              		.loc 1 61 38 view .LVU134
 388 0156 3E4A     		ldr	r2, .L84+8
 389 0158 02EB8102 		add	r2, r2, r1, lsl #2
ARM GAS  C:\Users\user\AppData\Local\Temp\ccZGoKcd.s 			page 13


 390 015c D2ED006A 		vldr.32	s13, [r2]
  61:Drivers/CMSIS/DSP/Source/FastMathFunctions/arm_atan2_f32.c ****     }
 391              		.loc 1 61 13 view .LVU135
 392 0160 77EEA67A 		vadd.f32	s15, s15, s13
 393              	.LVL40:
  59:Drivers/CMSIS/DSP/Source/FastMathFunctions/arm_atan2_f32.c ****     {
 394              		.loc 1 59 34 is_stmt 1 view .LVU136
  59:Drivers/CMSIS/DSP/Source/FastMathFunctions/arm_atan2_f32.c ****     {
 395              		.loc 1 59 35 is_stmt 0 view .LVU137
 396 0164 0133     		adds	r3, r3, #1
 397              	.LVL41:
 398              	.L20:
  59:Drivers/CMSIS/DSP/Source/FastMathFunctions/arm_atan2_f32.c ****     {
 399              		.loc 1 59 13 is_stmt 1 view .LVU138
  59:Drivers/CMSIS/DSP/Source/FastMathFunctions/arm_atan2_f32.c ****     {
 400              		.loc 1 59 5 is_stmt 0 view .LVU139
 401 0166 092B     		cmp	r3, #9
 402 0168 F1DD     		ble	.L25
  65:Drivers/CMSIS/DSP/Source/FastMathFunctions/arm_atan2_f32.c **** }
 403              		.loc 1 65 5 is_stmt 1 view .LVU140
 404              	.LVL42:
  65:Drivers/CMSIS/DSP/Source/FastMathFunctions/arm_atan2_f32.c **** }
 405              		.loc 1 65 5 is_stmt 0 view .LVU141
 406              	.LBE43:
 407              	.LBE42:
  86:Drivers/CMSIS/DSP/Source/FastMathFunctions/arm_atan2_f32.c ****    }
 408              		.loc 1 86 10 view .LVU142
 409 016a 9FED3B7A 		vldr.32	s14, .L84+16
 410              	.LVL43:
  86:Drivers/CMSIS/DSP/Source/FastMathFunctions/arm_atan2_f32.c ****    }
 411              		.loc 1 86 10 view .LVU143
 412 016e 77EE877A 		vadd.f32	s15, s15, s14
 413              	.LVL44:
  86:Drivers/CMSIS/DSP/Source/FastMathFunctions/arm_atan2_f32.c ****    }
 414              		.loc 1 86 10 view .LVU144
 415 0172 E1E7     		b	.L24
 416              	.LVL45:
 417              	.L69:
 418              	.LBB45:
 419              	.LBB44:
  59:Drivers/CMSIS/DSP/Source/FastMathFunctions/arm_atan2_f32.c ****     {
 420              		.loc 1 59 10 view .LVU145
 421 0174 0123     		movs	r3, #1
  57:Drivers/CMSIS/DSP/Source/FastMathFunctions/arm_atan2_f32.c ****     int i=1;
 422              		.loc 1 57 15 view .LVU146
 423 0176 DFED357A 		vldr.32	s15, .L84+4
 424 017a F4E7     		b	.L20
 425              	.LVL46:
 426              	.L67:
  57:Drivers/CMSIS/DSP/Source/FastMathFunctions/arm_atan2_f32.c ****     int i=1;
 427              		.loc 1 57 15 view .LVU147
 428              	.LBE44:
 429              	.LBE45:
 430              	.LBE46:
 431              	.LBE47:
 145:Drivers/CMSIS/DSP/Source/FastMathFunctions/arm_atan2_f32.c ****         {
 432              		.loc 1 145 14 is_stmt 1 view .LVU148
ARM GAS  C:\Users\user\AppData\Local\Temp\ccZGoKcd.s 			page 14


 145:Drivers/CMSIS/DSP/Source/FastMathFunctions/arm_atan2_f32.c ****         {
 433              		.loc 1 145 17 is_stmt 0 view .LVU149
 434 017c B5EEC00A 		vcmpe.f32	s0, #0
 435 0180 F1EE10FA 		vmrs	APSR_nzcv, FPSCR
 436 0184 06D4     		bmi	.L82
 151:Drivers/CMSIS/DSP/Source/FastMathFunctions/arm_atan2_f32.c ****             {
 437              		.loc 1 151 13 is_stmt 1 view .LVU150
 151:Drivers/CMSIS/DSP/Source/FastMathFunctions/arm_atan2_f32.c ****             {
 438              		.loc 1 151 17 is_stmt 0 view .LVU151
 439 0186 10EE103A 		vmov	r3, s0	@ int
 151:Drivers/CMSIS/DSP/Source/FastMathFunctions/arm_atan2_f32.c ****             {
 440              		.loc 1 151 16 view .LVU152
 441 018a 002B     		cmp	r3, #0
 442 018c 4EDA     		bge	.L39
 153:Drivers/CMSIS/DSP/Source/FastMathFunctions/arm_atan2_f32.c ****             }
 443              		.loc 1 153 16 is_stmt 1 view .LVU153
 153:Drivers/CMSIS/DSP/Source/FastMathFunctions/arm_atan2_f32.c ****             }
 444              		.loc 1 153 23 is_stmt 0 view .LVU154
 445 018e 344B     		ldr	r3, .L84+24
 446 0190 0360     		str	r3, [r0]	@ float
 447 0192 DAE7     		b	.L27
 448              	.L82:
 147:Drivers/CMSIS/DSP/Source/FastMathFunctions/arm_atan2_f32.c ****         }
 449              		.loc 1 147 12 is_stmt 1 view .LVU155
 147:Drivers/CMSIS/DSP/Source/FastMathFunctions/arm_atan2_f32.c ****         }
 450              		.loc 1 147 20 is_stmt 0 view .LVU156
 451 0194 80EE207A 		vdiv.f32	s14, s0, s1
 452              	.LVL47:
 453              	.LBB48:
 454              	.LBI48:
  68:Drivers/CMSIS/DSP/Source/FastMathFunctions/arm_atan2_f32.c **** {
 455              		.loc 1 68 32 is_stmt 1 view .LVU157
 456              	.LBB49:
  70:Drivers/CMSIS/DSP/Source/FastMathFunctions/arm_atan2_f32.c ****    float32_t res=0.0f;
 457              		.loc 1 70 4 view .LVU158
  71:Drivers/CMSIS/DSP/Source/FastMathFunctions/arm_atan2_f32.c **** 
 458              		.loc 1 71 4 view .LVU159
  73:Drivers/CMSIS/DSP/Source/FastMathFunctions/arm_atan2_f32.c ****    {
 459              		.loc 1 73 4 view .LVU160
  73:Drivers/CMSIS/DSP/Source/FastMathFunctions/arm_atan2_f32.c ****    {
 460              		.loc 1 73 7 is_stmt 0 view .LVU161
 461 0198 B5EEC07A 		vcmpe.f32	s14, #0
 462 019c F1EE10FA 		vmrs	APSR_nzcv, FPSCR
 463 01a0 0DD4     		bmi	.L83
  70:Drivers/CMSIS/DSP/Source/FastMathFunctions/arm_atan2_f32.c ****    float32_t res=0.0f;
 464              		.loc 1 70 8 view .LVU162
 465 01a2 0024     		movs	r4, #0
 466              	.LVL48:
 467              	.L30:
  79:Drivers/CMSIS/DSP/Source/FastMathFunctions/arm_atan2_f32.c ****    {
 468              		.loc 1 79 4 is_stmt 1 view .LVU163
  79:Drivers/CMSIS/DSP/Source/FastMathFunctions/arm_atan2_f32.c ****    {
 469              		.loc 1 79 7 is_stmt 0 view .LVU164
 470 01a4 F7EE007A 		vmov.f32	s15, #1.0e+0
 471 01a8 B4EEE77A 		vcmpe.f32	s14, s15
 472 01ac F1EE10FA 		vmrs	APSR_nzcv, FPSCR
 473 01b0 38DD     		ble	.L72
ARM GAS  C:\Users\user\AppData\Local\Temp\ccZGoKcd.s 			page 15


  81:Drivers/CMSIS/DSP/Source/FastMathFunctions/arm_atan2_f32.c ****       res = PIHALFF32 - arm_atan_limited_f32(x);
 474              		.loc 1 81 7 is_stmt 1 view .LVU165
  81:Drivers/CMSIS/DSP/Source/FastMathFunctions/arm_atan2_f32.c ****       res = PIHALFF32 - arm_atan_limited_f32(x);
 475              		.loc 1 81 9 is_stmt 0 view .LVU166
 476 01b2 C7EE876A 		vdiv.f32	s13, s15, s14
 477              	.LVL49:
  82:Drivers/CMSIS/DSP/Source/FastMathFunctions/arm_atan2_f32.c ****    }
 478              		.loc 1 82 7 is_stmt 1 view .LVU167
 479              	.LBB50:
 480              	.LBI50:
  55:Drivers/CMSIS/DSP/Source/FastMathFunctions/arm_atan2_f32.c **** {
 481              		.loc 1 55 32 view .LVU168
 482              	.LBB51:
  57:Drivers/CMSIS/DSP/Source/FastMathFunctions/arm_atan2_f32.c ****     int i=1;
 483              		.loc 1 57 5 view .LVU169
  58:Drivers/CMSIS/DSP/Source/FastMathFunctions/arm_atan2_f32.c ****     for(i=1;i<ATAN2_NB_COEFS_F32;i++)
 484              		.loc 1 58 5 view .LVU170
  59:Drivers/CMSIS/DSP/Source/FastMathFunctions/arm_atan2_f32.c ****     {
 485              		.loc 1 59 5 view .LVU171
  59:Drivers/CMSIS/DSP/Source/FastMathFunctions/arm_atan2_f32.c ****     {
 486              		.loc 1 59 10 is_stmt 0 view .LVU172
 487 01b6 0123     		movs	r3, #1
  57:Drivers/CMSIS/DSP/Source/FastMathFunctions/arm_atan2_f32.c ****     int i=1;
 488              		.loc 1 57 15 view .LVU173
 489 01b8 DFED247A 		vldr.32	s15, .L84+4
  59:Drivers/CMSIS/DSP/Source/FastMathFunctions/arm_atan2_f32.c ****     {
 490              		.loc 1 59 5 view .LVU174
 491 01bc 0FE0     		b	.L34
 492              	.LVL50:
 493              	.L83:
  59:Drivers/CMSIS/DSP/Source/FastMathFunctions/arm_atan2_f32.c ****     {
 494              		.loc 1 59 5 view .LVU175
 495              	.LBE51:
 496              	.LBE50:
  75:Drivers/CMSIS/DSP/Source/FastMathFunctions/arm_atan2_f32.c ****       x=-x;
 497              		.loc 1 75 7 is_stmt 1 view .LVU176
  76:Drivers/CMSIS/DSP/Source/FastMathFunctions/arm_atan2_f32.c ****    }
 498              		.loc 1 76 7 view .LVU177
  76:Drivers/CMSIS/DSP/Source/FastMathFunctions/arm_atan2_f32.c ****    }
 499              		.loc 1 76 8 is_stmt 0 view .LVU178
 500 01be B1EE477A 		vneg.f32	s14, s14
 501              	.LVL51:
  75:Drivers/CMSIS/DSP/Source/FastMathFunctions/arm_atan2_f32.c ****       x=-x;
 502              		.loc 1 75 11 view .LVU179
 503 01c2 0124     		movs	r4, #1
 504 01c4 EEE7     		b	.L30
 505              	.LVL52:
 506              	.L35:
 507              	.LBB53:
 508              	.LBB52:
  61:Drivers/CMSIS/DSP/Source/FastMathFunctions/arm_atan2_f32.c ****     }
 509              		.loc 1 61 9 is_stmt 1 view .LVU180
  61:Drivers/CMSIS/DSP/Source/FastMathFunctions/arm_atan2_f32.c ****     }
 510              		.loc 1 61 16 is_stmt 0 view .LVU181
 511 01c6 66EEA77A 		vmul.f32	s15, s13, s15
 512              	.LVL53:
  61:Drivers/CMSIS/DSP/Source/FastMathFunctions/arm_atan2_f32.c ****     }
ARM GAS  C:\Users\user\AppData\Local\Temp\ccZGoKcd.s 			page 16


 513              		.loc 1 61 59 view .LVU182
 514 01ca C3F10901 		rsb	r1, r3, #9
  61:Drivers/CMSIS/DSP/Source/FastMathFunctions/arm_atan2_f32.c ****     }
 515              		.loc 1 61 38 view .LVU183
 516 01ce 204A     		ldr	r2, .L84+8
 517 01d0 02EB8102 		add	r2, r2, r1, lsl #2
 518 01d4 92ED007A 		vldr.32	s14, [r2]
  61:Drivers/CMSIS/DSP/Source/FastMathFunctions/arm_atan2_f32.c ****     }
 519              		.loc 1 61 13 view .LVU184
 520 01d8 77EE877A 		vadd.f32	s15, s15, s14
 521              	.LVL54:
  59:Drivers/CMSIS/DSP/Source/FastMathFunctions/arm_atan2_f32.c ****     {
 522              		.loc 1 59 34 is_stmt 1 view .LVU185
  59:Drivers/CMSIS/DSP/Source/FastMathFunctions/arm_atan2_f32.c ****     {
 523              		.loc 1 59 35 is_stmt 0 view .LVU186
 524 01dc 0133     		adds	r3, r3, #1
 525              	.LVL55:
 526              	.L34:
  59:Drivers/CMSIS/DSP/Source/FastMathFunctions/arm_atan2_f32.c ****     {
 527              		.loc 1 59 13 is_stmt 1 view .LVU187
  59:Drivers/CMSIS/DSP/Source/FastMathFunctions/arm_atan2_f32.c ****     {
 528              		.loc 1 59 5 is_stmt 0 view .LVU188
 529 01de 092B     		cmp	r3, #9
 530 01e0 F1DD     		ble	.L35
  65:Drivers/CMSIS/DSP/Source/FastMathFunctions/arm_atan2_f32.c **** }
 531              		.loc 1 65 5 is_stmt 1 view .LVU189
 532              	.LVL56:
  65:Drivers/CMSIS/DSP/Source/FastMathFunctions/arm_atan2_f32.c **** }
 533              		.loc 1 65 5 is_stmt 0 view .LVU190
 534              	.LBE52:
 535              	.LBE53:
  82:Drivers/CMSIS/DSP/Source/FastMathFunctions/arm_atan2_f32.c ****    }
 536              		.loc 1 82 11 view .LVU191
 537 01e2 9FED1C7A 		vldr.32	s14, .L84+12
 538 01e6 77EE677A 		vsub.f32	s15, s14, s15
 539              	.LVL57:
 540              	.L36:
  90:Drivers/CMSIS/DSP/Source/FastMathFunctions/arm_atan2_f32.c ****    {
 541              		.loc 1 90 4 is_stmt 1 view .LVU192
  90:Drivers/CMSIS/DSP/Source/FastMathFunctions/arm_atan2_f32.c ****    {
 542              		.loc 1 90 7 is_stmt 0 view .LVU193
 543 01ea 0CB1     		cbz	r4, .L38
  92:Drivers/CMSIS/DSP/Source/FastMathFunctions/arm_atan2_f32.c ****    }
 544              		.loc 1 92 6 is_stmt 1 view .LVU194
  92:Drivers/CMSIS/DSP/Source/FastMathFunctions/arm_atan2_f32.c ****    }
 545              		.loc 1 92 10 is_stmt 0 view .LVU195
 546 01ec F1EE677A 		vneg.f32	s15, s15
 547              	.LVL58:
 548              	.L38:
  95:Drivers/CMSIS/DSP/Source/FastMathFunctions/arm_atan2_f32.c **** }
 549              		.loc 1 95 4 is_stmt 1 view .LVU196
  95:Drivers/CMSIS/DSP/Source/FastMathFunctions/arm_atan2_f32.c **** }
 550              		.loc 1 95 4 is_stmt 0 view .LVU197
 551              	.LBE49:
 552              	.LBE48:
 147:Drivers/CMSIS/DSP/Source/FastMathFunctions/arm_atan2_f32.c ****         }
 553              		.loc 1 147 38 view .LVU198
ARM GAS  C:\Users\user\AppData\Local\Temp\ccZGoKcd.s 			page 17


 554 01f0 9FED1A7A 		vldr.32	s14, .L84+20
 555 01f4 77EEC77A 		vsub.f32	s15, s15, s14
 147:Drivers/CMSIS/DSP/Source/FastMathFunctions/arm_atan2_f32.c ****         }
 556              		.loc 1 147 19 view .LVU199
 557 01f8 C0ED007A 		vstr.32	s15, [r0]
 558 01fc A5E7     		b	.L27
 559              	.LVL59:
 560              	.L37:
 561              	.LBB59:
 562              	.LBB58:
 563              	.LBB54:
 564              	.LBB55:
  61:Drivers/CMSIS/DSP/Source/FastMathFunctions/arm_atan2_f32.c ****     }
 565              		.loc 1 61 9 is_stmt 1 view .LVU200
  61:Drivers/CMSIS/DSP/Source/FastMathFunctions/arm_atan2_f32.c ****     }
 566              		.loc 1 61 16 is_stmt 0 view .LVU201
 567 01fe 67EE277A 		vmul.f32	s15, s14, s15
 568              	.LVL60:
  61:Drivers/CMSIS/DSP/Source/FastMathFunctions/arm_atan2_f32.c ****     }
 569              		.loc 1 61 59 view .LVU202
 570 0202 C3F10901 		rsb	r1, r3, #9
  61:Drivers/CMSIS/DSP/Source/FastMathFunctions/arm_atan2_f32.c ****     }
 571              		.loc 1 61 38 view .LVU203
 572 0206 124A     		ldr	r2, .L84+8
 573 0208 02EB8102 		add	r2, r2, r1, lsl #2
 574 020c D2ED006A 		vldr.32	s13, [r2]
  61:Drivers/CMSIS/DSP/Source/FastMathFunctions/arm_atan2_f32.c ****     }
 575              		.loc 1 61 13 view .LVU204
 576 0210 77EEA67A 		vadd.f32	s15, s15, s13
 577              	.LVL61:
  59:Drivers/CMSIS/DSP/Source/FastMathFunctions/arm_atan2_f32.c ****     {
 578              		.loc 1 59 34 is_stmt 1 view .LVU205
  59:Drivers/CMSIS/DSP/Source/FastMathFunctions/arm_atan2_f32.c ****     {
 579              		.loc 1 59 35 is_stmt 0 view .LVU206
 580 0214 0133     		adds	r3, r3, #1
 581              	.LVL62:
 582              	.L32:
  59:Drivers/CMSIS/DSP/Source/FastMathFunctions/arm_atan2_f32.c ****     {
 583              		.loc 1 59 13 is_stmt 1 view .LVU207
  59:Drivers/CMSIS/DSP/Source/FastMathFunctions/arm_atan2_f32.c ****     {
 584              		.loc 1 59 5 is_stmt 0 view .LVU208
 585 0216 092B     		cmp	r3, #9
 586 0218 F1DD     		ble	.L37
  65:Drivers/CMSIS/DSP/Source/FastMathFunctions/arm_atan2_f32.c **** }
 587              		.loc 1 65 5 is_stmt 1 view .LVU209
 588              	.LVL63:
  65:Drivers/CMSIS/DSP/Source/FastMathFunctions/arm_atan2_f32.c **** }
 589              		.loc 1 65 5 is_stmt 0 view .LVU210
 590              	.LBE55:
 591              	.LBE54:
  86:Drivers/CMSIS/DSP/Source/FastMathFunctions/arm_atan2_f32.c ****    }
 592              		.loc 1 86 10 view .LVU211
 593 021a 9FED0F7A 		vldr.32	s14, .L84+16
 594              	.LVL64:
  86:Drivers/CMSIS/DSP/Source/FastMathFunctions/arm_atan2_f32.c ****    }
 595              		.loc 1 86 10 view .LVU212
 596 021e 77EE877A 		vadd.f32	s15, s15, s14
ARM GAS  C:\Users\user\AppData\Local\Temp\ccZGoKcd.s 			page 18


 597              	.LVL65:
  86:Drivers/CMSIS/DSP/Source/FastMathFunctions/arm_atan2_f32.c ****    }
 598              		.loc 1 86 10 view .LVU213
 599 0222 E2E7     		b	.L36
 600              	.LVL66:
 601              	.L72:
 602              	.LBB57:
 603              	.LBB56:
  59:Drivers/CMSIS/DSP/Source/FastMathFunctions/arm_atan2_f32.c ****     {
 604              		.loc 1 59 10 view .LVU214
 605 0224 0123     		movs	r3, #1
  57:Drivers/CMSIS/DSP/Source/FastMathFunctions/arm_atan2_f32.c ****     int i=1;
 606              		.loc 1 57 15 view .LVU215
 607 0226 DFED097A 		vldr.32	s15, .L84+4
 608 022a F4E7     		b	.L32
 609              	.LVL67:
 610              	.L39:
  57:Drivers/CMSIS/DSP/Source/FastMathFunctions/arm_atan2_f32.c ****     int i=1;
 611              		.loc 1 57 15 view .LVU216
 612              	.LBE56:
 613              	.LBE57:
 614              	.LBE58:
 615              	.LBE59:
 157:Drivers/CMSIS/DSP/Source/FastMathFunctions/arm_atan2_f32.c ****             }
 616              		.loc 1 157 16 is_stmt 1 view .LVU217
 157:Drivers/CMSIS/DSP/Source/FastMathFunctions/arm_atan2_f32.c ****             }
 617              		.loc 1 157 23 is_stmt 0 view .LVU218
 618 022c 0D4B     		ldr	r3, .L84+28
 619 022e 0360     		str	r3, [r0]	@ float
 620 0230 8BE7     		b	.L27
 621              	.L78:
 166:Drivers/CMSIS/DSP/Source/FastMathFunctions/arm_atan2_f32.c ****             return(ARM_MATH_SUCCESS);
 622              		.loc 1 166 13 is_stmt 1 view .LVU219
 166:Drivers/CMSIS/DSP/Source/FastMathFunctions/arm_atan2_f32.c ****             return(ARM_MATH_SUCCESS);
 623              		.loc 1 166 20 is_stmt 0 view .LVU220
 624 0232 0D4B     		ldr	r3, .L84+32
 625 0234 0360     		str	r3, [r0]	@ float
 167:Drivers/CMSIS/DSP/Source/FastMathFunctions/arm_atan2_f32.c ****         }
 626              		.loc 1 167 13 is_stmt 1 view .LVU221
 167:Drivers/CMSIS/DSP/Source/FastMathFunctions/arm_atan2_f32.c ****         }
 627              		.loc 1 167 19 is_stmt 0 view .LVU222
 628 0236 0020     		movs	r0, #0
 629              	.LVL68:
 167:Drivers/CMSIS/DSP/Source/FastMathFunctions/arm_atan2_f32.c ****         }
 630              		.loc 1 167 19 view .LVU223
 631 0238 34E7     		b	.L13
 632              	.LVL69:
 633              	.L49:
 177:Drivers/CMSIS/DSP/Source/FastMathFunctions/arm_atan2_f32.c **** 
 634              		.loc 1 177 11 view .LVU224
 635 023a 6FF00300 		mvn	r0, #3
 636              	.LVL70:
 177:Drivers/CMSIS/DSP/Source/FastMathFunctions/arm_atan2_f32.c **** 
 637              		.loc 1 177 11 view .LVU225
 638 023e 31E7     		b	.L13
 639              	.LVL71:
 640              	.L74:
ARM GAS  C:\Users\user\AppData\Local\Temp\ccZGoKcd.s 			page 19


 177:Drivers/CMSIS/DSP/Source/FastMathFunctions/arm_atan2_f32.c **** 
 641              		.loc 1 177 11 view .LVU226
 642 0240 6FF00300 		mvn	r0, #3
 643              	.LVL72:
 177:Drivers/CMSIS/DSP/Source/FastMathFunctions/arm_atan2_f32.c **** 
 644              		.loc 1 177 11 view .LVU227
 645 0244 2EE7     		b	.L13
 646              	.L85:
 647 0246 00BF     		.align	2
 648              	.L84:
 649 0248 DB0FC9BF 		.word	-1077342245
 650 024c A59204BD 		.word	-1123773787
 651 0250 00000000 		.word	.LANCHOR0
 652 0254 DB0FC93F 		.word	1070141403
 653 0258 00000000 		.word	0
 654 025c DB0F4940 		.word	1078530011
 655 0260 DB0F49C0 		.word	-1068953637
 656 0264 DB0F4940 		.word	1078530011
 657 0268 DB0FC93F 		.word	1070141403
 658              		.cfi_endproc
 659              	.LFE123:
 661              		.section	.rodata.atan2_coefs_f32,"a"
 662              		.align	2
 663              		.set	.LANCHOR0,. + 0
 666              	atan2_coefs_f32:
 667 0000 00000000 		.word	0
 668 0004 0100803F 		.word	1065353217
 669 0008 C90CC0B7 		.word	-1212150583
 670 000c E565AABE 		.word	-1096129051
 671 0010 435690BB 		.word	-1148168637
 672 0014 3C695D3E 		.word	1046309180
 673 0018 EBFCA9BC 		.word	-1129710357
 674 001c 08B732BE 		.word	-1103972600
 675 0020 E745093E 		.word	1040795111
 676 0024 A59204BD 		.word	-1123773787
 677              		.text
 678              	.Letext0:
 679              		.file 2 "Drivers/CMSIS/DSP/Include/arm_math_types.h"
ARM GAS  C:\Users\user\AppData\Local\Temp\ccZGoKcd.s 			page 20

