ARM GAS  C:\Users\user\AppData\Local\Temp\cci6EFNM.s 			page 1


   1              		.cpu cortex-m4
   2              		.arch armv7e-m
   3              		.fpu fpv4-sp-d16
   4              		.eabi_attribute 27, 1
   5              		.eabi_attribute 28, 1
   6              		.eabi_attribute 20, 1
   7              		.eabi_attribute 21, 1
   8              		.eabi_attribute 23, 3
   9              		.eabi_attribute 24, 1
  10              		.eabi_attribute 25, 1
  11              		.eabi_attribute 26, 1
  12              		.eabi_attribute 30, 1
  13              		.eabi_attribute 34, 1
  14              		.eabi_attribute 18, 4
  15              		.file	"mpu6050_driver.c"
  16              		.text
  17              	.Ltext0:
  18              		.cfi_sections	.debug_frame
  19              		.section	.rodata.mpu6050_init.str1.4,"aMS",%progbits,1
  20              		.align	2
  21              	.LC0:
  22 0000 49324320 		.ascii	"I2C read failed!\000"
  22      72656164 
  22      20666169 
  22      6C656421 
  22      00
  23 0011 000000   		.align	2
  24              	.LC1:
  25 0014 64657669 		.ascii	"device is correct \000"
  25      63652069 
  25      7320636F 
  25      72726563 
  25      742000
  26 0027 00       		.align	2
  27              	.LC2:
  28 0028 64657669 		.ascii	"device is uncorrect \000"
  28      63652069 
  28      7320756E 
  28      636F7272 
  28      65637420 
  29 003d 000000   		.align	2
  30              	.LC3:
  31 0040 4661696C 		.ascii	"Failed to write to PWR_MGMT1_REG (reset)\000"
  31      65642074 
  31      6F207772 
  31      69746520 
  31      746F2050 
  32 0069 000000   		.align	2
  33              	.LC4:
  34 006c 6572726F 		.ascii	"error counter value is : %d \012 \000"
  34      7220636F 
  34      756E7465 
  34      72207661 
  34      6C756520 
  35              		.section	.text.mpu6050_init,"ax",%progbits
  36              		.align	1
  37              		.global	mpu6050_init
ARM GAS  C:\Users\user\AppData\Local\Temp\cci6EFNM.s 			page 2


  38              		.syntax unified
  39              		.thumb
  40              		.thumb_func
  42              	mpu6050_init:
  43              	.LFB137:
  44              		.file 1 "Core/Src/mpu6050_driver.c"
   1:Core/Src/mpu6050_driver.c **** #include"mpu6050_driver.h"
   2:Core/Src/mpu6050_driver.c **** 
   3:Core/Src/mpu6050_driver.c **** AccelMeas accel_data;
   4:Core/Src/mpu6050_driver.c **** GyroMeas gyro_data;
   5:Core/Src/mpu6050_driver.c **** const float gyro_X_Bias =  0.040737316;
   6:Core/Src/mpu6050_driver.c **** const float gyro_Y_Bias = -0.0186734423;
   7:Core/Src/mpu6050_driver.c **** const float gyro_Z_Bias =  0.0116336327;
   8:Core/Src/mpu6050_driver.c **** 
   9:Core/Src/mpu6050_driver.c **** void mpu6050_init(void)
  10:Core/Src/mpu6050_driver.c **** {
  45              		.loc 1 10 1 view -0
  46              		.cfi_startproc
  47              		@ args = 0, pretend = 0, frame = 8
  48              		@ frame_needed = 0, uses_anonymous_args = 0
  49 0000 10B5     		push	{r4, lr}
  50              	.LCFI0:
  51              		.cfi_def_cfa_offset 8
  52              		.cfi_offset 4, -8
  53              		.cfi_offset 14, -4
  54 0002 86B0     		sub	sp, sp, #24
  55              	.LCFI1:
  56              		.cfi_def_cfa_offset 32
  11:Core/Src/mpu6050_driver.c **** 	uint8_t error_counter=0;
  57              		.loc 1 11 2 view .LVU1
  58              	.LVL0:
  12:Core/Src/mpu6050_driver.c **** 	HAL_StatusTypeDef stat;
  59              		.loc 1 12 2 view .LVU2
  13:Core/Src/mpu6050_driver.c **** 	uint8_t data;
  60              		.loc 1 13 2 view .LVU3
  14:Core/Src/mpu6050_driver.c **** 	stat = HAL_I2C_Mem_Read(&hi2c1, MPU6050_SLAVE_ADDRESS, MPU6050_WHO_AM_I_REG, 1 , &data, 1 , 100);
  61              		.loc 1 14 2 view .LVU4
  62              		.loc 1 14 9 is_stmt 0 view .LVU5
  63 0004 6423     		movs	r3, #100
  64 0006 0293     		str	r3, [sp, #8]
  65 0008 0123     		movs	r3, #1
  66 000a 0193     		str	r3, [sp, #4]
  67 000c 0DF11702 		add	r2, sp, #23
  68 0010 0092     		str	r2, [sp]
  69 0012 7522     		movs	r2, #117
  70 0014 D021     		movs	r1, #208
  71 0016 4648     		ldr	r0, .L19
  72 0018 FFF7FEFF 		bl	HAL_I2C_Mem_Read
  73              	.LVL1:
  15:Core/Src/mpu6050_driver.c **** 	if (stat != HAL_OK) {
  74              		.loc 1 15 2 is_stmt 1 view .LVU6
  75              		.loc 1 15 5 is_stmt 0 view .LVU7
  76 001c 0028     		cmp	r0, #0
  77 001e 62D1     		bne	.L12
  16:Core/Src/mpu6050_driver.c **** 	    printf("I2C read failed!\n");
  17:Core/Src/mpu6050_driver.c **** 	    error_counter++;
  18:Core/Src/mpu6050_driver.c **** 	    return;
ARM GAS  C:\Users\user\AppData\Local\Temp\cci6EFNM.s 			page 3


  19:Core/Src/mpu6050_driver.c **** 	}
  20:Core/Src/mpu6050_driver.c **** 
  21:Core/Src/mpu6050_driver.c **** 	if(data == 0x68)
  78              		.loc 1 21 2 is_stmt 1 view .LVU8
  79              		.loc 1 21 10 is_stmt 0 view .LVU9
  80 0020 9DF81730 		ldrb	r3, [sp, #23]	@ zero_extendqisi2
  81              		.loc 1 21 4 view .LVU10
  82 0024 682B     		cmp	r3, #104
  83 0026 62D0     		beq	.L13
  22:Core/Src/mpu6050_driver.c **** 	{
  23:Core/Src/mpu6050_driver.c **** 		printf("device is correct \n");
  24:Core/Src/mpu6050_driver.c **** 	}else
  25:Core/Src/mpu6050_driver.c **** 	{
  26:Core/Src/mpu6050_driver.c **** 		printf("device is uncorrect \n");
  84              		.loc 1 26 3 is_stmt 1 view .LVU11
  85 0028 4248     		ldr	r0, .L19+4
  86              	.LVL2:
  87              		.loc 1 26 3 is_stmt 0 view .LVU12
  88 002a FFF7FEFF 		bl	puts
  89              	.LVL3:
  90              	.L5:
  27:Core/Src/mpu6050_driver.c **** 	}
  28:Core/Src/mpu6050_driver.c **** 
  29:Core/Src/mpu6050_driver.c **** 	// Reseting device
  30:Core/Src/mpu6050_driver.c **** 	data = 0x80U;
  91              		.loc 1 30 2 is_stmt 1 view .LVU13
  92              		.loc 1 30 7 is_stmt 0 view .LVU14
  93 002e 8023     		movs	r3, #128
  94 0030 8DF81730 		strb	r3, [sp, #23]
  31:Core/Src/mpu6050_driver.c **** 	stat = HAL_I2C_Mem_Write(&hi2c1, MPU6050_SLAVE_ADDRESS, MPU6050_PWR_MGMT1_REG , 1 , &data, 1 , 100
  95              		.loc 1 31 2 is_stmt 1 view .LVU15
  96              		.loc 1 31 9 is_stmt 0 view .LVU16
  97 0034 6423     		movs	r3, #100
  98 0036 0293     		str	r3, [sp, #8]
  99 0038 0123     		movs	r3, #1
 100 003a 0193     		str	r3, [sp, #4]
 101 003c 0DF11702 		add	r2, sp, #23
 102 0040 0092     		str	r2, [sp]
 103 0042 6B22     		movs	r2, #107
 104 0044 D021     		movs	r1, #208
 105 0046 3A48     		ldr	r0, .L19
 106 0048 FFF7FEFF 		bl	HAL_I2C_Mem_Write
 107              	.LVL4:
  32:Core/Src/mpu6050_driver.c **** 	if(stat != HAL_OK) {
 108              		.loc 1 32 2 is_stmt 1 view .LVU17
 109              		.loc 1 32 4 is_stmt 0 view .LVU18
 110 004c 0446     		mov	r4, r0
 111 004e 0028     		cmp	r0, #0
 112 0050 51D1     		bne	.L14
 113              	.LVL5:
 114              	.L6:
  33:Core/Src/mpu6050_driver.c **** 	    printf("Failed to write to PWR_MGMT1_REG (reset)\n");
  34:Core/Src/mpu6050_driver.c **** 	    error_counter++;
  35:Core/Src/mpu6050_driver.c **** 	}
  36:Core/Src/mpu6050_driver.c **** 	HAL_Delay(100);
 115              		.loc 1 36 2 is_stmt 1 view .LVU19
 116 0052 6420     		movs	r0, #100
ARM GAS  C:\Users\user\AppData\Local\Temp\cci6EFNM.s 			page 4


 117 0054 FFF7FEFF 		bl	HAL_Delay
 118              	.LVL6:
  37:Core/Src/mpu6050_driver.c **** 
  38:Core/Src/mpu6050_driver.c **** 	// Make sure sleep mode is off
  39:Core/Src/mpu6050_driver.c **** 	data = 0x00U;
 119              		.loc 1 39 2 view .LVU20
 120              		.loc 1 39 7 is_stmt 0 view .LVU21
 121 0058 0023     		movs	r3, #0
 122 005a 8DF81730 		strb	r3, [sp, #23]
  40:Core/Src/mpu6050_driver.c **** 	stat = HAL_I2C_Mem_Write(&hi2c1, MPU6050_SLAVE_ADDRESS, MPU6050_PWR_MGMT1_REG , 1 , &data, 1 , 100
 123              		.loc 1 40 2 is_stmt 1 view .LVU22
 124              		.loc 1 40 9 is_stmt 0 view .LVU23
 125 005e 6423     		movs	r3, #100
 126 0060 0293     		str	r3, [sp, #8]
 127 0062 0123     		movs	r3, #1
 128 0064 0193     		str	r3, [sp, #4]
 129 0066 0DF11702 		add	r2, sp, #23
 130 006a 0092     		str	r2, [sp]
 131 006c 6B22     		movs	r2, #107
 132 006e D021     		movs	r1, #208
 133 0070 2F48     		ldr	r0, .L19
 134 0072 FFF7FEFF 		bl	HAL_I2C_Mem_Write
 135              	.LVL7:
  41:Core/Src/mpu6050_driver.c **** 	if(stat != HAL_OK) {
 136              		.loc 1 41 2 is_stmt 1 view .LVU24
 137              		.loc 1 41 4 is_stmt 0 view .LVU25
 138 0076 0028     		cmp	r0, #0
 139 0078 42D1     		bne	.L15
 140              	.LVL8:
 141              	.L7:
  42:Core/Src/mpu6050_driver.c **** 	    printf("Failed to write to PWR_MGMT1_REG (reset)\n");
  43:Core/Src/mpu6050_driver.c **** 	    error_counter++;
  44:Core/Src/mpu6050_driver.c **** 	}
  45:Core/Src/mpu6050_driver.c **** 
  46:Core/Src/mpu6050_driver.c **** 
  47:Core/Src/mpu6050_driver.c **** 	// Gyro config 250 degree
  48:Core/Src/mpu6050_driver.c **** 	data = 0x00U;
 142              		.loc 1 48 2 is_stmt 1 view .LVU26
 143              		.loc 1 48 7 is_stmt 0 view .LVU27
 144 007a 0023     		movs	r3, #0
 145 007c 8DF81730 		strb	r3, [sp, #23]
  49:Core/Src/mpu6050_driver.c **** 	stat = HAL_I2C_Mem_Write(&hi2c1, MPU6050_SLAVE_ADDRESS, MPU6050_GYRO_CONFIG_REG , 1 , &data, 1 , 1
 146              		.loc 1 49 2 is_stmt 1 view .LVU28
 147              		.loc 1 49 9 is_stmt 0 view .LVU29
 148 0080 6423     		movs	r3, #100
 149 0082 0293     		str	r3, [sp, #8]
 150 0084 0123     		movs	r3, #1
 151 0086 0193     		str	r3, [sp, #4]
 152 0088 0DF11702 		add	r2, sp, #23
 153 008c 0092     		str	r2, [sp]
 154 008e 1B22     		movs	r2, #27
 155 0090 D021     		movs	r1, #208
 156 0092 2748     		ldr	r0, .L19
 157 0094 FFF7FEFF 		bl	HAL_I2C_Mem_Write
 158              	.LVL9:
  50:Core/Src/mpu6050_driver.c **** 	if(stat != HAL_OK) {
 159              		.loc 1 50 2 is_stmt 1 view .LVU30
ARM GAS  C:\Users\user\AppData\Local\Temp\cci6EFNM.s 			page 5


 160              		.loc 1 50 4 is_stmt 0 view .LVU31
 161 0098 0028     		cmp	r0, #0
 162 009a 37D1     		bne	.L16
 163              	.LVL10:
 164              	.L8:
  51:Core/Src/mpu6050_driver.c **** 	    printf("Failed to write to PWR_MGMT1_REG (reset)\n");
  52:Core/Src/mpu6050_driver.c **** 	    error_counter++;
  53:Core/Src/mpu6050_driver.c **** 	}
  54:Core/Src/mpu6050_driver.c **** 
  55:Core/Src/mpu6050_driver.c **** 
  56:Core/Src/mpu6050_driver.c **** 	// Accel config 250 degree
  57:Core/Src/mpu6050_driver.c **** 	data = 0x00U;
 165              		.loc 1 57 2 is_stmt 1 view .LVU32
 166              		.loc 1 57 7 is_stmt 0 view .LVU33
 167 009c 0023     		movs	r3, #0
 168 009e 8DF81730 		strb	r3, [sp, #23]
  58:Core/Src/mpu6050_driver.c **** 	stat = HAL_I2C_Mem_Write(&hi2c1, MPU6050_SLAVE_ADDRESS, MPU6050_ACCEL_CONFIG_REG, 1 , &data, 1 , 1
 169              		.loc 1 58 2 is_stmt 1 view .LVU34
 170              		.loc 1 58 9 is_stmt 0 view .LVU35
 171 00a2 6423     		movs	r3, #100
 172 00a4 0293     		str	r3, [sp, #8]
 173 00a6 0123     		movs	r3, #1
 174 00a8 0193     		str	r3, [sp, #4]
 175 00aa 0DF11702 		add	r2, sp, #23
 176 00ae 0092     		str	r2, [sp]
 177 00b0 1C22     		movs	r2, #28
 178 00b2 D021     		movs	r1, #208
 179 00b4 1E48     		ldr	r0, .L19
 180 00b6 FFF7FEFF 		bl	HAL_I2C_Mem_Write
 181              	.LVL11:
  59:Core/Src/mpu6050_driver.c **** 	if(stat != HAL_OK) {
 182              		.loc 1 59 2 is_stmt 1 view .LVU36
 183              		.loc 1 59 4 is_stmt 0 view .LVU37
 184 00ba 68BB     		cbnz	r0, .L17
 185              	.LVL12:
 186              	.L9:
  60:Core/Src/mpu6050_driver.c **** 	    printf("Failed to write to PWR_MGMT1_REG (reset)\n");
  61:Core/Src/mpu6050_driver.c **** 	    error_counter++;
  62:Core/Src/mpu6050_driver.c **** 	}
  63:Core/Src/mpu6050_driver.c **** 
  64:Core/Src/mpu6050_driver.c **** 
  65:Core/Src/mpu6050_driver.c **** 	// DLPF as
  66:Core/Src/mpu6050_driver.c **** 	data = 0x01U;
 187              		.loc 1 66 2 is_stmt 1 view .LVU38
 188              		.loc 1 66 7 is_stmt 0 view .LVU39
 189 00bc 0123     		movs	r3, #1
 190 00be 8DF81730 		strb	r3, [sp, #23]
  67:Core/Src/mpu6050_driver.c **** 	stat = HAL_I2C_Mem_Write(&hi2c1, MPU6050_SLAVE_ADDRESS, MPU6050_CONFIG_REG, 1 , &data, 1 , 100);
 191              		.loc 1 67 2 is_stmt 1 view .LVU40
 192              		.loc 1 67 9 is_stmt 0 view .LVU41
 193 00c2 6422     		movs	r2, #100
 194 00c4 0292     		str	r2, [sp, #8]
 195 00c6 0193     		str	r3, [sp, #4]
 196 00c8 0DF11702 		add	r2, sp, #23
 197 00cc 0092     		str	r2, [sp]
 198 00ce 1A22     		movs	r2, #26
 199 00d0 D021     		movs	r1, #208
ARM GAS  C:\Users\user\AppData\Local\Temp\cci6EFNM.s 			page 6


 200 00d2 1748     		ldr	r0, .L19
 201 00d4 FFF7FEFF 		bl	HAL_I2C_Mem_Write
 202              	.LVL13:
  68:Core/Src/mpu6050_driver.c **** 	if(stat != HAL_OK) {
 203              		.loc 1 68 2 is_stmt 1 view .LVU42
 204              		.loc 1 68 4 is_stmt 0 view .LVU43
 205 00d8 20BB     		cbnz	r0, .L18
 206              	.LVL14:
 207              	.L10:
  69:Core/Src/mpu6050_driver.c **** 	    printf("Failed to write to PWR_MGMT1_REG (reset)\n");
  70:Core/Src/mpu6050_driver.c **** 	    error_counter++;
  71:Core/Src/mpu6050_driver.c **** 	}
  72:Core/Src/mpu6050_driver.c **** 
  73:Core/Src/mpu6050_driver.c **** 
  74:Core/Src/mpu6050_driver.c **** 	printf("error counter value is : %d \n " , error_counter);
 208              		.loc 1 74 2 is_stmt 1 view .LVU44
 209 00da 2146     		mov	r1, r4
 210 00dc 1648     		ldr	r0, .L19+8
 211 00de FFF7FEFF 		bl	printf
 212              	.LVL15:
 213              	.L1:
  75:Core/Src/mpu6050_driver.c **** }
 214              		.loc 1 75 1 is_stmt 0 view .LVU45
 215 00e2 06B0     		add	sp, sp, #24
 216              	.LCFI2:
 217              		.cfi_remember_state
 218              		.cfi_def_cfa_offset 8
 219              		@ sp needed
 220 00e4 10BD     		pop	{r4, pc}
 221              	.LVL16:
 222              	.L12:
 223              	.LCFI3:
 224              		.cfi_restore_state
  16:Core/Src/mpu6050_driver.c **** 	    error_counter++;
 225              		.loc 1 16 6 is_stmt 1 view .LVU46
 226 00e6 1548     		ldr	r0, .L19+12
 227              	.LVL17:
  16:Core/Src/mpu6050_driver.c **** 	    error_counter++;
 228              		.loc 1 16 6 is_stmt 0 view .LVU47
 229 00e8 FFF7FEFF 		bl	puts
 230              	.LVL18:
  17:Core/Src/mpu6050_driver.c **** 	    return;
 231              		.loc 1 17 6 is_stmt 1 view .LVU48
  18:Core/Src/mpu6050_driver.c **** 	}
 232              		.loc 1 18 6 view .LVU49
 233 00ec F9E7     		b	.L1
 234              	.LVL19:
 235              	.L13:
  23:Core/Src/mpu6050_driver.c **** 	}else
 236              		.loc 1 23 3 view .LVU50
 237 00ee 1448     		ldr	r0, .L19+16
 238              	.LVL20:
  23:Core/Src/mpu6050_driver.c **** 	}else
 239              		.loc 1 23 3 is_stmt 0 view .LVU51
 240 00f0 FFF7FEFF 		bl	puts
 241              	.LVL21:
 242 00f4 9BE7     		b	.L5
ARM GAS  C:\Users\user\AppData\Local\Temp\cci6EFNM.s 			page 7


 243              	.LVL22:
 244              	.L14:
  33:Core/Src/mpu6050_driver.c **** 	    error_counter++;
 245              		.loc 1 33 6 is_stmt 1 view .LVU52
 246 00f6 1348     		ldr	r0, .L19+20
 247              	.LVL23:
  33:Core/Src/mpu6050_driver.c **** 	    error_counter++;
 248              		.loc 1 33 6 is_stmt 0 view .LVU53
 249 00f8 FFF7FEFF 		bl	puts
 250              	.LVL24:
  34:Core/Src/mpu6050_driver.c **** 	}
 251              		.loc 1 34 6 is_stmt 1 view .LVU54
  34:Core/Src/mpu6050_driver.c **** 	}
 252              		.loc 1 34 19 is_stmt 0 view .LVU55
 253 00fc 0124     		movs	r4, #1
 254 00fe A8E7     		b	.L6
 255              	.LVL25:
 256              	.L15:
  42:Core/Src/mpu6050_driver.c **** 	    error_counter++;
 257              		.loc 1 42 6 is_stmt 1 view .LVU56
 258 0100 1048     		ldr	r0, .L19+20
 259              	.LVL26:
  42:Core/Src/mpu6050_driver.c **** 	    error_counter++;
 260              		.loc 1 42 6 is_stmt 0 view .LVU57
 261 0102 FFF7FEFF 		bl	puts
 262              	.LVL27:
  43:Core/Src/mpu6050_driver.c **** 	}
 263              		.loc 1 43 6 is_stmt 1 view .LVU58
  43:Core/Src/mpu6050_driver.c **** 	}
 264              		.loc 1 43 19 is_stmt 0 view .LVU59
 265 0106 0134     		adds	r4, r4, #1
 266              	.LVL28:
  43:Core/Src/mpu6050_driver.c **** 	}
 267              		.loc 1 43 19 view .LVU60
 268 0108 E4B2     		uxtb	r4, r4
 269              	.LVL29:
  43:Core/Src/mpu6050_driver.c **** 	}
 270              		.loc 1 43 19 view .LVU61
 271 010a B6E7     		b	.L7
 272              	.LVL30:
 273              	.L16:
  51:Core/Src/mpu6050_driver.c **** 	    error_counter++;
 274              		.loc 1 51 6 is_stmt 1 view .LVU62
 275 010c 0D48     		ldr	r0, .L19+20
 276              	.LVL31:
  51:Core/Src/mpu6050_driver.c **** 	    error_counter++;
 277              		.loc 1 51 6 is_stmt 0 view .LVU63
 278 010e FFF7FEFF 		bl	puts
 279              	.LVL32:
  52:Core/Src/mpu6050_driver.c **** 	}
 280              		.loc 1 52 6 is_stmt 1 view .LVU64
  52:Core/Src/mpu6050_driver.c **** 	}
 281              		.loc 1 52 19 is_stmt 0 view .LVU65
 282 0112 0134     		adds	r4, r4, #1
 283              	.LVL33:
  52:Core/Src/mpu6050_driver.c **** 	}
 284              		.loc 1 52 19 view .LVU66
ARM GAS  C:\Users\user\AppData\Local\Temp\cci6EFNM.s 			page 8


 285 0114 E4B2     		uxtb	r4, r4
 286              	.LVL34:
  52:Core/Src/mpu6050_driver.c **** 	}
 287              		.loc 1 52 19 view .LVU67
 288 0116 C1E7     		b	.L8
 289              	.LVL35:
 290              	.L17:
  60:Core/Src/mpu6050_driver.c **** 	    error_counter++;
 291              		.loc 1 60 6 is_stmt 1 view .LVU68
 292 0118 0A48     		ldr	r0, .L19+20
 293              	.LVL36:
  60:Core/Src/mpu6050_driver.c **** 	    error_counter++;
 294              		.loc 1 60 6 is_stmt 0 view .LVU69
 295 011a FFF7FEFF 		bl	puts
 296              	.LVL37:
  61:Core/Src/mpu6050_driver.c **** 	}
 297              		.loc 1 61 6 is_stmt 1 view .LVU70
  61:Core/Src/mpu6050_driver.c **** 	}
 298              		.loc 1 61 19 is_stmt 0 view .LVU71
 299 011e 0134     		adds	r4, r4, #1
 300              	.LVL38:
  61:Core/Src/mpu6050_driver.c **** 	}
 301              		.loc 1 61 19 view .LVU72
 302 0120 E4B2     		uxtb	r4, r4
 303              	.LVL39:
  61:Core/Src/mpu6050_driver.c **** 	}
 304              		.loc 1 61 19 view .LVU73
 305 0122 CBE7     		b	.L9
 306              	.LVL40:
 307              	.L18:
  69:Core/Src/mpu6050_driver.c **** 	    error_counter++;
 308              		.loc 1 69 6 is_stmt 1 view .LVU74
 309 0124 0748     		ldr	r0, .L19+20
 310              	.LVL41:
  69:Core/Src/mpu6050_driver.c **** 	    error_counter++;
 311              		.loc 1 69 6 is_stmt 0 view .LVU75
 312 0126 FFF7FEFF 		bl	puts
 313              	.LVL42:
  70:Core/Src/mpu6050_driver.c **** 	}
 314              		.loc 1 70 6 is_stmt 1 view .LVU76
  70:Core/Src/mpu6050_driver.c **** 	}
 315              		.loc 1 70 19 is_stmt 0 view .LVU77
 316 012a 0134     		adds	r4, r4, #1
 317              	.LVL43:
  70:Core/Src/mpu6050_driver.c **** 	}
 318              		.loc 1 70 19 view .LVU78
 319 012c E4B2     		uxtb	r4, r4
 320              	.LVL44:
  70:Core/Src/mpu6050_driver.c **** 	}
 321              		.loc 1 70 19 view .LVU79
 322 012e D4E7     		b	.L10
 323              	.L20:
 324              		.align	2
 325              	.L19:
 326 0130 00000000 		.word	hi2c1
 327 0134 28000000 		.word	.LC2
 328 0138 6C000000 		.word	.LC4
ARM GAS  C:\Users\user\AppData\Local\Temp\cci6EFNM.s 			page 9


 329 013c 00000000 		.word	.LC0
 330 0140 14000000 		.word	.LC1
 331 0144 40000000 		.word	.LC3
 332              		.cfi_endproc
 333              	.LFE137:
 335              		.section	.text.mpu6050_data,"ax",%progbits
 336              		.align	1
 337              		.global	mpu6050_data
 338              		.syntax unified
 339              		.thumb
 340              		.thumb_func
 342              	mpu6050_data:
 343              	.LFB138:
  76:Core/Src/mpu6050_driver.c **** 
  77:Core/Src/mpu6050_driver.c **** void mpu6050_data(void)
  78:Core/Src/mpu6050_driver.c **** {
 344              		.loc 1 78 1 is_stmt 1 view -0
 345              		.cfi_startproc
 346              		@ args = 0, pretend = 0, frame = 16
 347              		@ frame_needed = 0, uses_anonymous_args = 0
 348 0000 00B5     		push	{lr}
 349              	.LCFI4:
 350              		.cfi_def_cfa_offset 4
 351              		.cfi_offset 14, -4
 352 0002 89B0     		sub	sp, sp, #36
 353              	.LCFI5:
 354              		.cfi_def_cfa_offset 40
  79:Core/Src/mpu6050_driver.c **** 	HAL_StatusTypeDef stat;
 355              		.loc 1 79 2 view .LVU81
  80:Core/Src/mpu6050_driver.c **** 	uint8_t AccelRaw[6];
 356              		.loc 1 80 2 view .LVU82
  81:Core/Src/mpu6050_driver.c **** 	uint8_t GyroRaw[6];
 357              		.loc 1 81 2 view .LVU83
  82:Core/Src/mpu6050_driver.c **** 
  83:Core/Src/mpu6050_driver.c **** 	stat = HAL_I2C_Mem_Read(&hi2c1, MPU6050_SLAVE_ADDRESS , MPU6050_ACCELXOUT_REG, 1 , AccelRaw , 6 , 
 358              		.loc 1 83 2 view .LVU84
 359              		.loc 1 83 9 is_stmt 0 view .LVU85
 360 0004 6423     		movs	r3, #100
 361 0006 0293     		str	r3, [sp, #8]
 362 0008 0623     		movs	r3, #6
 363 000a 0193     		str	r3, [sp, #4]
 364 000c 06AB     		add	r3, sp, #24
 365 000e 0093     		str	r3, [sp]
 366 0010 0123     		movs	r3, #1
 367 0012 3B22     		movs	r2, #59
 368 0014 D021     		movs	r1, #208
 369 0016 5648     		ldr	r0, .L27
 370 0018 FFF7FEFF 		bl	HAL_I2C_Mem_Read
 371              	.LVL45:
  84:Core/Src/mpu6050_driver.c **** 	if(stat != HAL_OK) {
 372              		.loc 1 84 2 is_stmt 1 view .LVU86
 373              		.loc 1 84 4 is_stmt 0 view .LVU87
 374 001c 0028     		cmp	r0, #0
 375 001e 40F09E80 		bne	.L25
 376              	.LVL46:
 377              	.L22:
  85:Core/Src/mpu6050_driver.c **** 	    printf("Failed to write to PWR_MGMT1_REG (reset)\n");
ARM GAS  C:\Users\user\AppData\Local\Temp\cci6EFNM.s 			page 10


  86:Core/Src/mpu6050_driver.c **** 	    //error_counter++;
  87:Core/Src/mpu6050_driver.c **** 	}
  88:Core/Src/mpu6050_driver.c **** 
  89:Core/Src/mpu6050_driver.c **** 	stat = HAL_I2C_Mem_Read(&hi2c1, MPU6050_SLAVE_ADDRESS , MPU6050_GYROXOUT_REG, 1 , GyroRaw , 6 , 10
 378              		.loc 1 89 2 is_stmt 1 view .LVU88
 379              		.loc 1 89 9 is_stmt 0 view .LVU89
 380 0022 6423     		movs	r3, #100
 381 0024 0293     		str	r3, [sp, #8]
 382 0026 0623     		movs	r3, #6
 383 0028 0193     		str	r3, [sp, #4]
 384 002a 04AB     		add	r3, sp, #16
 385 002c 0093     		str	r3, [sp]
 386 002e 0123     		movs	r3, #1
 387 0030 4322     		movs	r2, #67
 388 0032 D021     		movs	r1, #208
 389 0034 4E48     		ldr	r0, .L27
 390 0036 FFF7FEFF 		bl	HAL_I2C_Mem_Read
 391              	.LVL47:
  90:Core/Src/mpu6050_driver.c **** 	if(stat != HAL_OK) {
 392              		.loc 1 90 2 is_stmt 1 view .LVU90
 393              		.loc 1 90 4 is_stmt 0 view .LVU91
 394 003a 0028     		cmp	r0, #0
 395 003c 40F09380 		bne	.L26
 396              	.LVL48:
 397              	.L23:
  91:Core/Src/mpu6050_driver.c **** 	    printf("Failed to write to PWR_MGMT1_REG (reset)\n");
  92:Core/Src/mpu6050_driver.c **** 	    //error_counter++;
  93:Core/Src/mpu6050_driver.c **** 	}
  94:Core/Src/mpu6050_driver.c **** 
  95:Core/Src/mpu6050_driver.c **** 	accel_data.Accel_X = (int16_t)((AccelRaw[0] << 8) | AccelRaw[1]); // MPU6050 HAS X AND Y CORDINATE
 398              		.loc 1 95 2 is_stmt 1 view .LVU92
 399              		.loc 1 95 42 is_stmt 0 view .LVU93
 400 0040 9DF81820 		ldrb	r2, [sp, #24]	@ zero_extendqisi2
 401              		.loc 1 95 62 view .LVU94
 402 0044 9DF81930 		ldrb	r3, [sp, #25]	@ zero_extendqisi2
 403              		.loc 1 95 23 view .LVU95
 404 0048 43EA0223 		orr	r3, r3, r2, lsl #8
 405 004c 1BB2     		sxth	r3, r3
 406              		.loc 1 95 21 view .LVU96
 407 004e 07EE903A 		vmov	s15, r3	@ int
 408 0052 F8EEE76A 		vcvt.f32.s32	s13, s15
 409 0056 474A     		ldr	r2, .L27+4
 410 0058 C2ED006A 		vstr.32	s13, [r2]
  96:Core/Src/mpu6050_driver.c **** 	accel_data.Accel_Y = (int16_t)((AccelRaw[2] << 8) | AccelRaw[3]);
 411              		.loc 1 96 2 is_stmt 1 view .LVU97
 412              		.loc 1 96 42 is_stmt 0 view .LVU98
 413 005c 9DF81A10 		ldrb	r1, [sp, #26]	@ zero_extendqisi2
 414              		.loc 1 96 62 view .LVU99
 415 0060 9DF81B30 		ldrb	r3, [sp, #27]	@ zero_extendqisi2
 416              		.loc 1 96 23 view .LVU100
 417 0064 43EA0123 		orr	r3, r3, r1, lsl #8
 418 0068 1BB2     		sxth	r3, r3
 419              		.loc 1 96 21 view .LVU101
 420 006a 07EE903A 		vmov	s15, r3	@ int
 421 006e B8EEE77A 		vcvt.f32.s32	s14, s15
 422 0072 82ED017A 		vstr.32	s14, [r2, #4]
  97:Core/Src/mpu6050_driver.c **** 	accel_data.Accel_Z = (int16_t)((AccelRaw[4] << 8) | AccelRaw[5]);
ARM GAS  C:\Users\user\AppData\Local\Temp\cci6EFNM.s 			page 11


 423              		.loc 1 97 2 is_stmt 1 view .LVU102
 424              		.loc 1 97 42 is_stmt 0 view .LVU103
 425 0076 9DF81C10 		ldrb	r1, [sp, #28]	@ zero_extendqisi2
 426              		.loc 1 97 62 view .LVU104
 427 007a 9DF81D30 		ldrb	r3, [sp, #29]	@ zero_extendqisi2
 428              		.loc 1 97 23 view .LVU105
 429 007e 43EA0123 		orr	r3, r3, r1, lsl #8
 430 0082 1BB2     		sxth	r3, r3
 431              		.loc 1 97 21 view .LVU106
 432 0084 07EE903A 		vmov	s15, r3	@ int
 433 0088 F8EEE77A 		vcvt.f32.s32	s15, s15
 434 008c C2ED027A 		vstr.32	s15, [r2, #8]
  98:Core/Src/mpu6050_driver.c **** 
  99:Core/Src/mpu6050_driver.c **** 	accel_data.Accel_X = -(( accel_data.Accel_X / ACCEL_SCALE ) * G_TO_M_S2);
 435              		.loc 1 99 2 is_stmt 1 view .LVU107
 436              		.loc 1 99 46 is_stmt 0 view .LVU108
 437 0090 DFED395A 		vldr.32	s11, .L27+8
 438 0094 66EEA56A 		vmul.f32	s13, s13, s11
 439              		.loc 1 99 62 view .LVU109
 440 0098 9FED386A 		vldr.32	s12, .L27+12
 441              		.loc 1 99 23 view .LVU110
 442 009c 66EE666A 		vnmul.f32	s13, s12, s13
 443              		.loc 1 99 21 view .LVU111
 444 00a0 C2ED006A 		vstr.32	s13, [r2]
 100:Core/Src/mpu6050_driver.c **** 	accel_data.Accel_Y = -(( accel_data.Accel_Y / ACCEL_SCALE ) * G_TO_M_S2);
 445              		.loc 1 100 2 is_stmt 1 view .LVU112
 446              		.loc 1 100 46 is_stmt 0 view .LVU113
 447 00a4 27EE257A 		vmul.f32	s14, s14, s11
 448              		.loc 1 100 23 view .LVU114
 449 00a8 26EE477A 		vnmul.f32	s14, s12, s14
 450              		.loc 1 100 21 view .LVU115
 451 00ac 82ED017A 		vstr.32	s14, [r2, #4]
 101:Core/Src/mpu6050_driver.c **** 	accel_data.Accel_Z = -((( accel_data.Accel_Z / ACCEL_SCALE ) * G_TO_M_S2 ) - G_TO_M_S2);
 452              		.loc 1 101 2 is_stmt 1 view .LVU116
 453              		.loc 1 101 47 is_stmt 0 view .LVU117
 454 00b0 67EEA57A 		vmul.f32	s15, s15, s11
 455              		.loc 1 101 63 view .LVU118
 456 00b4 67EE867A 		vmul.f32	s15, s15, s12
 457              		.loc 1 101 77 view .LVU119
 458 00b8 77EEC67A 		vsub.f32	s15, s15, s12
 459              		.loc 1 101 23 view .LVU120
 460 00bc F1EE677A 		vneg.f32	s15, s15
 461              		.loc 1 101 21 view .LVU121
 462 00c0 C2ED027A 		vstr.32	s15, [r2, #8]
 102:Core/Src/mpu6050_driver.c **** 
 103:Core/Src/mpu6050_driver.c **** 
 104:Core/Src/mpu6050_driver.c **** 	gyro_data.Gyro_X = (int16_t)((GyroRaw[2] << 8)  | GyroRaw[3]);
 463              		.loc 1 104 2 is_stmt 1 view .LVU122
 464              		.loc 1 104 39 is_stmt 0 view .LVU123
 465 00c4 9DF81220 		ldrb	r2, [sp, #18]	@ zero_extendqisi2
 466              		.loc 1 104 59 view .LVU124
 467 00c8 9DF81330 		ldrb	r3, [sp, #19]	@ zero_extendqisi2
 468              		.loc 1 104 21 view .LVU125
 469 00cc 43EA0223 		orr	r3, r3, r2, lsl #8
 470 00d0 1BB2     		sxth	r3, r3
 471              		.loc 1 104 19 view .LVU126
 472 00d2 07EE903A 		vmov	s15, r3	@ int
ARM GAS  C:\Users\user\AppData\Local\Temp\cci6EFNM.s 			page 12


 473 00d6 F8EEE76A 		vcvt.f32.s32	s13, s15
 474 00da 294A     		ldr	r2, .L27+16
 475 00dc C2ED006A 		vstr.32	s13, [r2]
 105:Core/Src/mpu6050_driver.c **** 	gyro_data.Gyro_Y = (int16_t)((GyroRaw[0] << 8)  | GyroRaw[1]);
 476              		.loc 1 105 2 is_stmt 1 view .LVU127
 477              		.loc 1 105 39 is_stmt 0 view .LVU128
 478 00e0 9DF81010 		ldrb	r1, [sp, #16]	@ zero_extendqisi2
 479              		.loc 1 105 59 view .LVU129
 480 00e4 9DF81130 		ldrb	r3, [sp, #17]	@ zero_extendqisi2
 481              		.loc 1 105 21 view .LVU130
 482 00e8 43EA0123 		orr	r3, r3, r1, lsl #8
 483 00ec 1BB2     		sxth	r3, r3
 484              		.loc 1 105 19 view .LVU131
 485 00ee 07EE903A 		vmov	s15, r3	@ int
 486 00f2 B8EEE77A 		vcvt.f32.s32	s14, s15
 487 00f6 82ED017A 		vstr.32	s14, [r2, #4]
 106:Core/Src/mpu6050_driver.c **** 	gyro_data.Gyro_Z = (int16_t)((GyroRaw[4] << 8)  | GyroRaw[5]);
 488              		.loc 1 106 2 is_stmt 1 view .LVU132
 489              		.loc 1 106 39 is_stmt 0 view .LVU133
 490 00fa 9DF81410 		ldrb	r1, [sp, #20]	@ zero_extendqisi2
 491              		.loc 1 106 59 view .LVU134
 492 00fe 9DF81530 		ldrb	r3, [sp, #21]	@ zero_extendqisi2
 493              		.loc 1 106 21 view .LVU135
 494 0102 43EA0123 		orr	r3, r3, r1, lsl #8
 495 0106 1BB2     		sxth	r3, r3
 496              		.loc 1 106 19 view .LVU136
 497 0108 07EE903A 		vmov	s15, r3	@ int
 498 010c F8EEE77A 		vcvt.f32.s32	s15, s15
 499 0110 C2ED027A 		vstr.32	s15, [r2, #8]
 107:Core/Src/mpu6050_driver.c **** 
 108:Core/Src/mpu6050_driver.c **** 	gyro_data.Gyro_X = (( gyro_data.Gyro_X / GYRO_SCALE ) * DEG2RAD) - gyro_X_Bias ;
 500              		.loc 1 108 2 is_stmt 1 view .LVU137
 501              		.loc 1 108 41 is_stmt 0 view .LVU138
 502 0114 9FED1B5A 		vldr.32	s10, .L27+20
 503 0118 86EE856A 		vdiv.f32	s12, s13, s10
 504              		.loc 1 108 56 view .LVU139
 505 011c DFED1A5A 		vldr.32	s11, .L27+24
 506 0120 66EE256A 		vmul.f32	s13, s12, s11
 507              		.loc 1 108 67 view .LVU140
 508 0124 9FED196A 		vldr.32	s12, .L27+28
 509 0128 76EEC66A 		vsub.f32	s13, s13, s12
 510              		.loc 1 108 19 view .LVU141
 511 012c C2ED006A 		vstr.32	s13, [r2]
 109:Core/Src/mpu6050_driver.c **** 	gyro_data.Gyro_Y = (( gyro_data.Gyro_Y / GYRO_SCALE ) * DEG2RAD) - gyro_Y_Bias ;
 512              		.loc 1 109 2 is_stmt 1 view .LVU142
 513              		.loc 1 109 41 is_stmt 0 view .LVU143
 514 0130 C7EE056A 		vdiv.f32	s13, s14, s10
 515              		.loc 1 109 56 view .LVU144
 516 0134 26EEA57A 		vmul.f32	s14, s13, s11
 517              		.loc 1 109 67 view .LVU145
 518 0138 DFED156A 		vldr.32	s13, .L27+32
 519 013c 37EE267A 		vadd.f32	s14, s14, s13
 520              		.loc 1 109 19 view .LVU146
 521 0140 82ED017A 		vstr.32	s14, [r2, #4]
 110:Core/Src/mpu6050_driver.c **** 	gyro_data.Gyro_Z = (( gyro_data.Gyro_Z / GYRO_SCALE ) * DEG2RAD) - gyro_Z_Bias ;
 522              		.loc 1 110 2 is_stmt 1 view .LVU147
 523              		.loc 1 110 41 is_stmt 0 view .LVU148
ARM GAS  C:\Users\user\AppData\Local\Temp\cci6EFNM.s 			page 13


 524 0144 87EE857A 		vdiv.f32	s14, s15, s10
 525              		.loc 1 110 56 view .LVU149
 526 0148 67EE257A 		vmul.f32	s15, s14, s11
 527              		.loc 1 110 67 view .LVU150
 528 014c 9FED117A 		vldr.32	s14, .L27+36
 529 0150 77EEC77A 		vsub.f32	s15, s15, s14
 530              		.loc 1 110 19 view .LVU151
 531 0154 C2ED027A 		vstr.32	s15, [r2, #8]
 111:Core/Src/mpu6050_driver.c **** 
 112:Core/Src/mpu6050_driver.c **** }
 532              		.loc 1 112 1 view .LVU152
 533 0158 09B0     		add	sp, sp, #36
 534              	.LCFI6:
 535              		.cfi_remember_state
 536              		.cfi_def_cfa_offset 4
 537              		@ sp needed
 538 015a 5DF804FB 		ldr	pc, [sp], #4
 539              	.LVL49:
 540              	.L25:
 541              	.LCFI7:
 542              		.cfi_restore_state
  85:Core/Src/mpu6050_driver.c **** 	    //error_counter++;
 543              		.loc 1 85 6 is_stmt 1 view .LVU153
 544 015e 0E48     		ldr	r0, .L27+40
 545              	.LVL50:
  85:Core/Src/mpu6050_driver.c **** 	    //error_counter++;
 546              		.loc 1 85 6 is_stmt 0 view .LVU154
 547 0160 FFF7FEFF 		bl	puts
 548              	.LVL51:
 549 0164 5DE7     		b	.L22
 550              	.LVL52:
 551              	.L26:
  91:Core/Src/mpu6050_driver.c **** 	    //error_counter++;
 552              		.loc 1 91 6 is_stmt 1 view .LVU155
 553 0166 0C48     		ldr	r0, .L27+40
 554              	.LVL53:
  91:Core/Src/mpu6050_driver.c **** 	    //error_counter++;
 555              		.loc 1 91 6 is_stmt 0 view .LVU156
 556 0168 FFF7FEFF 		bl	puts
 557              	.LVL54:
 558 016c 68E7     		b	.L23
 559              	.L28:
 560 016e 00BF     		.align	2
 561              	.L27:
 562 0170 00000000 		.word	hi2c1
 563 0174 00000000 		.word	.LANCHOR0
 564 0178 00008038 		.word	947912704
 565 017c 0AE81C41 		.word	1092413450
 566 0180 00000000 		.word	.LANCHOR1
 567 0184 00000343 		.word	1124270080
 568 0188 39FA8E3C 		.word	1016003129
 569 018c 2CDC263D 		.word	1025956908
 570 0190 0CF9983C 		.word	1016658188
 571 0194 FE9A3E3C 		.word	1010735870
 572 0198 40000000 		.word	.LC3
 573              		.cfi_endproc
 574              	.LFE138:
ARM GAS  C:\Users\user\AppData\Local\Temp\cci6EFNM.s 			page 14


 576              		.global	__aeabi_f2d
 577              		.global	__aeabi_dmul
 578              		.global	__aeabi_dadd
 579              		.global	__aeabi_d2f
 580              		.section	.text.LPF_Apply,"ax",%progbits
 581              		.align	1
 582              		.global	LPF_Apply
 583              		.syntax unified
 584              		.thumb
 585              		.thumb_func
 587              	LPF_Apply:
 588              	.LVL55:
 589              	.LFB139:
 113:Core/Src/mpu6050_driver.c **** 
 114:Core/Src/mpu6050_driver.c **** 
 115:Core/Src/mpu6050_driver.c **** void LPF_Apply( GyroMeas * gyro , float gyroPrev[3] )
 116:Core/Src/mpu6050_driver.c **** {
 590              		.loc 1 116 1 is_stmt 1 view -0
 591              		.cfi_startproc
 592              		@ args = 0, pretend = 0, frame = 0
 593              		@ frame_needed = 0, uses_anonymous_args = 0
 594              		.loc 1 116 1 is_stmt 0 view .LVU158
 595 0000 F8B5     		push	{r3, r4, r5, r6, r7, lr}
 596              	.LCFI8:
 597              		.cfi_def_cfa_offset 24
 598              		.cfi_offset 3, -24
 599              		.cfi_offset 4, -20
 600              		.cfi_offset 5, -16
 601              		.cfi_offset 6, -12
 602              		.cfi_offset 7, -8
 603              		.cfi_offset 14, -4
 604 0002 0446     		mov	r4, r0
 605 0004 0D46     		mov	r5, r1
 117:Core/Src/mpu6050_driver.c **** 	gyro->Gyro_X = LPF_GYRO_ALPHA * gyroPrev[0] + (1 - LPF_GYRO_ALPHA) * gyro->Gyro_X;
 606              		.loc 1 117 2 is_stmt 1 view .LVU159
 607              		.loc 1 117 42 is_stmt 0 view .LVU160
 608 0006 0868     		ldr	r0, [r1]	@ float
 609              	.LVL56:
 610              		.loc 1 117 42 view .LVU161
 611 0008 FFF7FEFF 		bl	__aeabi_f2d
 612              	.LVL57:
 613              		.loc 1 117 32 view .LVU162
 614 000c 28A3     		adr	r3, .L31
 615 000e D3E90023 		ldrd	r2, [r3]
 616 0012 FFF7FEFF 		bl	__aeabi_dmul
 617              	.LVL58:
 618 0016 0646     		mov	r6, r0
 619 0018 0F46     		mov	r7, r1
 620              		.loc 1 117 75 view .LVU163
 621 001a 2068     		ldr	r0, [r4]	@ float
 622 001c FFF7FEFF 		bl	__aeabi_f2d
 623              	.LVL59:
 624              		.loc 1 117 69 view .LVU164
 625 0020 25A3     		adr	r3, .L31+8
 626 0022 D3E90023 		ldrd	r2, [r3]
 627 0026 FFF7FEFF 		bl	__aeabi_dmul
 628              	.LVL60:
ARM GAS  C:\Users\user\AppData\Local\Temp\cci6EFNM.s 			page 15


 629 002a 0246     		mov	r2, r0
 630 002c 0B46     		mov	r3, r1
 631              		.loc 1 117 46 view .LVU165
 632 002e 3046     		mov	r0, r6
 633 0030 3946     		mov	r1, r7
 634 0032 FFF7FEFF 		bl	__aeabi_dadd
 635              	.LVL61:
 636 0036 FFF7FEFF 		bl	__aeabi_d2f
 637              	.LVL62:
 638              		.loc 1 117 15 view .LVU166
 639 003a 2060     		str	r0, [r4]	@ float
 118:Core/Src/mpu6050_driver.c **** 	gyro->Gyro_Y = LPF_GYRO_ALPHA * gyroPrev[1] + (1 - LPF_GYRO_ALPHA) * gyro->Gyro_Y;
 640              		.loc 1 118 2 is_stmt 1 view .LVU167
 641              		.loc 1 118 42 is_stmt 0 view .LVU168
 642 003c 6868     		ldr	r0, [r5, #4]	@ float
 643 003e FFF7FEFF 		bl	__aeabi_f2d
 644              	.LVL63:
 645              		.loc 1 118 32 view .LVU169
 646 0042 1BA3     		adr	r3, .L31
 647 0044 D3E90023 		ldrd	r2, [r3]
 648 0048 FFF7FEFF 		bl	__aeabi_dmul
 649              	.LVL64:
 650 004c 0646     		mov	r6, r0
 651 004e 0F46     		mov	r7, r1
 652              		.loc 1 118 75 view .LVU170
 653 0050 6068     		ldr	r0, [r4, #4]	@ float
 654 0052 FFF7FEFF 		bl	__aeabi_f2d
 655              	.LVL65:
 656              		.loc 1 118 69 view .LVU171
 657 0056 18A3     		adr	r3, .L31+8
 658 0058 D3E90023 		ldrd	r2, [r3]
 659 005c FFF7FEFF 		bl	__aeabi_dmul
 660              	.LVL66:
 661 0060 0246     		mov	r2, r0
 662 0062 0B46     		mov	r3, r1
 663              		.loc 1 118 46 view .LVU172
 664 0064 3046     		mov	r0, r6
 665 0066 3946     		mov	r1, r7
 666 0068 FFF7FEFF 		bl	__aeabi_dadd
 667              	.LVL67:
 668 006c FFF7FEFF 		bl	__aeabi_d2f
 669              	.LVL68:
 670              		.loc 1 118 15 view .LVU173
 671 0070 6060     		str	r0, [r4, #4]	@ float
 119:Core/Src/mpu6050_driver.c **** 	gyro->Gyro_Z = LPF_GYRO_ALPHA * gyroPrev[2] + (1 - LPF_GYRO_ALPHA) * gyro->Gyro_Z;
 672              		.loc 1 119 2 is_stmt 1 view .LVU174
 673              		.loc 1 119 42 is_stmt 0 view .LVU175
 674 0072 A868     		ldr	r0, [r5, #8]	@ float
 675 0074 FFF7FEFF 		bl	__aeabi_f2d
 676              	.LVL69:
 677              		.loc 1 119 32 view .LVU176
 678 0078 0DA3     		adr	r3, .L31
 679 007a D3E90023 		ldrd	r2, [r3]
 680 007e FFF7FEFF 		bl	__aeabi_dmul
 681              	.LVL70:
 682 0082 0646     		mov	r6, r0
 683 0084 0F46     		mov	r7, r1
ARM GAS  C:\Users\user\AppData\Local\Temp\cci6EFNM.s 			page 16


 684              		.loc 1 119 75 view .LVU177
 685 0086 A068     		ldr	r0, [r4, #8]	@ float
 686 0088 FFF7FEFF 		bl	__aeabi_f2d
 687              	.LVL71:
 688              		.loc 1 119 69 view .LVU178
 689 008c 0AA3     		adr	r3, .L31+8
 690 008e D3E90023 		ldrd	r2, [r3]
 691 0092 FFF7FEFF 		bl	__aeabi_dmul
 692              	.LVL72:
 693 0096 0246     		mov	r2, r0
 694 0098 0B46     		mov	r3, r1
 695              		.loc 1 119 46 view .LVU179
 696 009a 3046     		mov	r0, r6
 697 009c 3946     		mov	r1, r7
 698 009e FFF7FEFF 		bl	__aeabi_dadd
 699              	.LVL73:
 700 00a2 FFF7FEFF 		bl	__aeabi_d2f
 701              	.LVL74:
 702              		.loc 1 119 15 view .LVU180
 703 00a6 A060     		str	r0, [r4, #8]	@ float
 120:Core/Src/mpu6050_driver.c **** 
 121:Core/Src/mpu6050_driver.c **** }
 704              		.loc 1 121 1 view .LVU181
 705 00a8 F8BD     		pop	{r3, r4, r5, r6, r7, pc}
 706              	.LVL75:
 707              	.L32:
 708              		.loc 1 121 1 view .LVU182
 709 00aa 00BFAFF3 		.align	3
 709      0080
 710              	.L31:
 711 00b0 7B14AE47 		.word	1202590843
 712 00b4 E17A943F 		.word	1066695393
 713 00b8 5C8FC2F5 		.word	-171798692
 714 00bc 285CEF3F 		.word	1072651304
 715              		.cfi_endproc
 716              	.LFE139:
 718              		.section	.text.i2c_reset,"ax",%progbits
 719              		.align	1
 720              		.global	i2c_reset
 721              		.syntax unified
 722              		.thumb
 723              		.thumb_func
 725              	i2c_reset:
 726              	.LFB140:
 122:Core/Src/mpu6050_driver.c **** 
 123:Core/Src/mpu6050_driver.c **** void i2c_reset() {
 727              		.loc 1 123 18 is_stmt 1 view -0
 728              		.cfi_startproc
 729              		@ args = 0, pretend = 0, frame = 24
 730              		@ frame_needed = 0, uses_anonymous_args = 0
 731 0000 30B5     		push	{r4, r5, lr}
 732              	.LCFI9:
 733              		.cfi_def_cfa_offset 12
 734              		.cfi_offset 4, -12
 735              		.cfi_offset 5, -8
 736              		.cfi_offset 14, -4
 737 0002 87B0     		sub	sp, sp, #28
ARM GAS  C:\Users\user\AppData\Local\Temp\cci6EFNM.s 			page 17


 738              	.LCFI10:
 739              		.cfi_def_cfa_offset 40
 124:Core/Src/mpu6050_driver.c **** 
 125:Core/Src/mpu6050_driver.c ****     GPIO_InitTypeDef GPIO_InitStruct = {0};
 740              		.loc 1 125 5 view .LVU184
 741              		.loc 1 125 22 is_stmt 0 view .LVU185
 742 0004 0024     		movs	r4, #0
 743 0006 0194     		str	r4, [sp, #4]
 744 0008 0294     		str	r4, [sp, #8]
 745 000a 0394     		str	r4, [sp, #12]
 746 000c 0494     		str	r4, [sp, #16]
 747 000e 0594     		str	r4, [sp, #20]
 126:Core/Src/mpu6050_driver.c **** 
 127:Core/Src/mpu6050_driver.c ****     // SCL ve SDA'yı çıkış olarak ayarla
 128:Core/Src/mpu6050_driver.c ****     GPIO_InitStruct.Pin = GPIO_PIN_8 | GPIO_PIN_9;
 748              		.loc 1 128 5 is_stmt 1 view .LVU186
 749              		.loc 1 128 25 is_stmt 0 view .LVU187
 750 0010 4FF44073 		mov	r3, #768
 751 0014 0193     		str	r3, [sp, #4]
 129:Core/Src/mpu6050_driver.c ****     GPIO_InitStruct.Mode = GPIO_MODE_OUTPUT_PP;
 752              		.loc 1 129 5 is_stmt 1 view .LVU188
 753              		.loc 1 129 26 is_stmt 0 view .LVU189
 754 0016 0123     		movs	r3, #1
 755 0018 0293     		str	r3, [sp, #8]
 130:Core/Src/mpu6050_driver.c ****     GPIO_InitStruct.Pull = GPIO_NOPULL;
 756              		.loc 1 130 5 is_stmt 1 view .LVU190
 131:Core/Src/mpu6050_driver.c ****     GPIO_InitStruct.Speed = GPIO_SPEED_FREQ_LOW;
 757              		.loc 1 131 5 view .LVU191
 132:Core/Src/mpu6050_driver.c ****     HAL_GPIO_Init(GPIOB, &GPIO_InitStruct);
 758              		.loc 1 132 5 view .LVU192
 759 001a 01A9     		add	r1, sp, #4
 760 001c 1848     		ldr	r0, .L37
 761 001e FFF7FEFF 		bl	HAL_GPIO_Init
 762              	.LVL76:
 133:Core/Src/mpu6050_driver.c **** 
 134:Core/Src/mpu6050_driver.c ****     // Clock sinyali göndererek I2C hattını serbest bırakmaya çalış
 135:Core/Src/mpu6050_driver.c ****     for (int i = 0; i < 15; i++) {
 763              		.loc 1 135 5 view .LVU193
 764              	.LBB2:
 765              		.loc 1 135 10 view .LVU194
 766              		.loc 1 135 5 is_stmt 0 view .LVU195
 767 0022 13E0     		b	.L34
 768              	.LVL77:
 769              	.L35:
 136:Core/Src/mpu6050_driver.c ****         HAL_GPIO_WritePin(GPIOB, GPIO_PIN_8, GPIO_PIN_SET);  // SCL HIGH
 770              		.loc 1 136 9 is_stmt 1 discriminator 3 view .LVU196
 771 0024 164D     		ldr	r5, .L37
 772 0026 0122     		movs	r2, #1
 773 0028 4FF48071 		mov	r1, #256
 774 002c 2846     		mov	r0, r5
 775 002e FFF7FEFF 		bl	HAL_GPIO_WritePin
 776              	.LVL78:
 137:Core/Src/mpu6050_driver.c ****         HAL_Delay(2);
 777              		.loc 1 137 9 discriminator 3 view .LVU197
 778 0032 0220     		movs	r0, #2
 779 0034 FFF7FEFF 		bl	HAL_Delay
 780              	.LVL79:
ARM GAS  C:\Users\user\AppData\Local\Temp\cci6EFNM.s 			page 18


 138:Core/Src/mpu6050_driver.c ****         HAL_GPIO_WritePin(GPIOB, GPIO_PIN_8, GPIO_PIN_RESET); // SCL LOW
 781              		.loc 1 138 9 discriminator 3 view .LVU198
 782 0038 0022     		movs	r2, #0
 783 003a 4FF48071 		mov	r1, #256
 784 003e 2846     		mov	r0, r5
 785 0040 FFF7FEFF 		bl	HAL_GPIO_WritePin
 786              	.LVL80:
 139:Core/Src/mpu6050_driver.c ****         HAL_Delay(2);
 787              		.loc 1 139 9 discriminator 3 view .LVU199
 788 0044 0220     		movs	r0, #2
 789 0046 FFF7FEFF 		bl	HAL_Delay
 790              	.LVL81:
 135:Core/Src/mpu6050_driver.c ****         HAL_GPIO_WritePin(GPIOB, GPIO_PIN_8, GPIO_PIN_SET);  // SCL HIGH
 791              		.loc 1 135 29 discriminator 3 view .LVU200
 135:Core/Src/mpu6050_driver.c ****         HAL_GPIO_WritePin(GPIOB, GPIO_PIN_8, GPIO_PIN_SET);  // SCL HIGH
 792              		.loc 1 135 30 is_stmt 0 discriminator 3 view .LVU201
 793 004a 0134     		adds	r4, r4, #1
 794              	.LVL82:
 795              	.L34:
 135:Core/Src/mpu6050_driver.c ****         HAL_GPIO_WritePin(GPIOB, GPIO_PIN_8, GPIO_PIN_SET);  // SCL HIGH
 796              		.loc 1 135 21 is_stmt 1 discriminator 1 view .LVU202
 135:Core/Src/mpu6050_driver.c ****         HAL_GPIO_WritePin(GPIOB, GPIO_PIN_8, GPIO_PIN_SET);  // SCL HIGH
 797              		.loc 1 135 5 is_stmt 0 discriminator 1 view .LVU203
 798 004c 0E2C     		cmp	r4, #14
 799 004e E9DD     		ble	.L35
 800              	.LBE2:
 140:Core/Src/mpu6050_driver.c ****     }
 141:Core/Src/mpu6050_driver.c ****     // Keep SCL high
 142:Core/Src/mpu6050_driver.c ****     HAL_GPIO_WritePin(GPIOB, GPIO_PIN_8, GPIO_PIN_SET);
 801              		.loc 1 142 5 is_stmt 1 view .LVU204
 802 0050 0B4C     		ldr	r4, .L37
 803              	.LVL83:
 804              		.loc 1 142 5 is_stmt 0 view .LVU205
 805 0052 0122     		movs	r2, #1
 806 0054 4FF48071 		mov	r1, #256
 807 0058 2046     		mov	r0, r4
 808 005a FFF7FEFF 		bl	HAL_GPIO_WritePin
 809              	.LVL84:
 143:Core/Src/mpu6050_driver.c ****     // SDA'yı HIGH yap
 144:Core/Src/mpu6050_driver.c ****     HAL_GPIO_WritePin(GPIOB, GPIO_PIN_9, GPIO_PIN_SET);
 810              		.loc 1 144 5 is_stmt 1 view .LVU206
 811 005e 0122     		movs	r2, #1
 812 0060 4FF40071 		mov	r1, #512
 813 0064 2046     		mov	r0, r4
 814 0066 FFF7FEFF 		bl	HAL_GPIO_WritePin
 815              	.LVL85:
 145:Core/Src/mpu6050_driver.c ****     HAL_Delay(5);
 816              		.loc 1 145 5 view .LVU207
 817 006a 0520     		movs	r0, #5
 818 006c FFF7FEFF 		bl	HAL_Delay
 819              	.LVL86:
 146:Core/Src/mpu6050_driver.c **** 
 147:Core/Src/mpu6050_driver.c ****     // GPIO'ları tekrar I2C modu için ayarla
 148:Core/Src/mpu6050_driver.c ****     HAL_GPIO_DeInit(GPIOB, GPIO_PIN_8 | GPIO_PIN_9);
 820              		.loc 1 148 5 view .LVU208
 821 0070 4FF44071 		mov	r1, #768
 822 0074 2046     		mov	r0, r4
ARM GAS  C:\Users\user\AppData\Local\Temp\cci6EFNM.s 			page 19


 823 0076 FFF7FEFF 		bl	HAL_GPIO_DeInit
 824              	.LVL87:
 149:Core/Src/mpu6050_driver.c **** 
 150:Core/Src/mpu6050_driver.c **** }
 825              		.loc 1 150 1 is_stmt 0 view .LVU209
 826 007a 07B0     		add	sp, sp, #28
 827              	.LCFI11:
 828              		.cfi_def_cfa_offset 12
 829              		@ sp needed
 830 007c 30BD     		pop	{r4, r5, pc}
 831              	.L38:
 832 007e 00BF     		.align	2
 833              	.L37:
 834 0080 00040240 		.word	1073873920
 835              		.cfi_endproc
 836              	.LFE140:
 838              		.global	gyro_Z_Bias
 839              		.global	gyro_Y_Bias
 840              		.global	gyro_X_Bias
 841              		.global	gyro_data
 842              		.global	accel_data
 843              		.section	.bss.accel_data,"aw",%nobits
 844              		.align	2
 845              		.set	.LANCHOR0,. + 0
 848              	accel_data:
 849 0000 00000000 		.space	12
 849      00000000 
 849      00000000 
 850              		.section	.bss.gyro_data,"aw",%nobits
 851              		.align	2
 852              		.set	.LANCHOR1,. + 0
 855              	gyro_data:
 856 0000 00000000 		.space	12
 856      00000000 
 856      00000000 
 857              		.section	.rodata.gyro_X_Bias,"a"
 858              		.align	2
 861              	gyro_X_Bias:
 862 0000 2CDC263D 		.word	1025956908
 863              		.section	.rodata.gyro_Y_Bias,"a"
 864              		.align	2
 867              	gyro_Y_Bias:
 868 0000 0CF998BC 		.word	-1130825460
 869              		.section	.rodata.gyro_Z_Bias,"a"
 870              		.align	2
 873              	gyro_Z_Bias:
 874 0000 FE9A3E3C 		.word	1010735870
 875              		.text
 876              	.Letext0:
 877              		.file 2 "c:\\program files (x86)\\gnu arm embedded toolchain\\10 2021.10\\arm-none-eabi\\include\\
 878              		.file 3 "c:\\program files (x86)\\gnu arm embedded toolchain\\10 2021.10\\arm-none-eabi\\include\\
 879              		.file 4 "Drivers/CMSIS/Device/ST/STM32F4xx/Include/stm32f411xe.h"
 880              		.file 5 "Drivers/STM32F4xx_HAL_Driver/Inc/stm32f4xx_hal_def.h"
 881              		.file 6 "Drivers/STM32F4xx_HAL_Driver/Inc/stm32f4xx_hal_gpio.h"
 882              		.file 7 "Drivers/STM32F4xx_HAL_Driver/Inc/stm32f4xx_hal_dma.h"
 883              		.file 8 "Drivers/STM32F4xx_HAL_Driver/Inc/stm32f4xx_hal_i2c.h"
 884              		.file 9 "Core/Inc/mpu6050_driver.h"
ARM GAS  C:\Users\user\AppData\Local\Temp\cci6EFNM.s 			page 20


 885              		.file 10 "Drivers/STM32F4xx_HAL_Driver/Inc/stm32f4xx_hal.h"
 886              		.file 11 "c:\\program files (x86)\\gnu arm embedded toolchain\\10 2021.10\\arm-none-eabi\\include\
 887              		.file 12 "<built-in>"
ARM GAS  C:\Users\user\AppData\Local\Temp\cci6EFNM.s 			page 21

